
bf.o:     file format elf32-bigmips


Disassembly of section .text:

00000000 <BF_encrypt.clone.0>:
  l = data[0];
  r = data[1];

  if (encrypt)
    {
      l ^= p[0];
       0:	3c030000 	lui	v1,0x0
       4:	8c620000 	lw	v0,0(v1)
     int encrypt;
{
  register BF_LONG l, r, *p, *s;
  p = key_P;
  s = &(key_S[0]);
  l = data[0];
       8:	8c880000 	lw	t0,0(a0)

  if (encrypt)
    {
      l ^= p[0];

      BF_ENC (r, l, s, p[1]);
       c:	24630000 	addiu	v1,v1,0
  l = data[0];
  r = data[1];

  if (encrypt)
    {
      l ^= p[0];
      10:	01024026 	xor	t0,t0,v0

      BF_ENC (r, l, s, p[1]);
      14:	00084c02 	srl	t1,t0,0x10
      18:	00082a02 	srl	a1,t0,0x8
      1c:	312900ff 	andi	t1,t1,0xff
      20:	00083e02 	srl	a3,t0,0x18
      24:	25290100 	addiu	t1,t1,256
      28:	30a500ff 	andi	a1,a1,0xff
      2c:	3c020000 	lui	v0,0x0
      30:	24420000 	addiu	v0,v0,0
      34:	310600ff 	andi	a2,t0,0xff
      38:	00094880 	sll	t1,t1,0x2
      3c:	00073880 	sll	a3,a3,0x2
      40:	24a50200 	addiu	a1,a1,512
      44:	01224821 	addu	t1,t1,v0
      48:	00e23821 	addu	a3,a3,v0
      4c:	00052880 	sll	a1,a1,0x2
      50:	24c60300 	addiu	a2,a2,768
      54:	8d2b0000 	lw	t3,0(t1)
      58:	00a22821 	addu	a1,a1,v0
      5c:	8ce70000 	lw	a3,0(a3)
      60:	00063080 	sll	a2,a2,0x2
      64:	8caa0000 	lw	t2,0(a1)
      68:	00c23021 	addu	a2,a2,v0
      6c:	8c690004 	lw	t1,4(v1)
      70:	8cc60000 	lw	a2,0(a2)
{
  register BF_LONG l, r, *p, *s;
  p = key_P;
  s = &(key_S[0]);
  l = data[0];
  r = data[1];
      74:	8c850004 	lw	a1,4(a0)

  if (encrypt)
    {
      l ^= p[0];

      BF_ENC (r, l, s, p[1]);
      78:	01673821 	addu	a3,t3,a3
      7c:	00ea3826 	xor	a3,a3,t2
      80:	00a92826 	xor	a1,a1,t1
      84:	00e63821 	addu	a3,a3,a2
      88:	00a73826 	xor	a3,a1,a3
      BF_ENC (l, r, s, p[2]);
      8c:	00075402 	srl	t2,a3,0x10
      90:	00074a02 	srl	t1,a3,0x8
      94:	314a00ff 	andi	t2,t2,0xff
      98:	00073602 	srl	a2,a3,0x18
      9c:	254a0100 	addiu	t2,t2,256
      a0:	312900ff 	andi	t1,t1,0xff
      a4:	30e500ff 	andi	a1,a3,0xff
      a8:	000a5080 	sll	t2,t2,0x2
      ac:	00063080 	sll	a2,a2,0x2
      b0:	25290200 	addiu	t1,t1,512
      b4:	01425021 	addu	t2,t2,v0
      b8:	00c23021 	addu	a2,a2,v0
      bc:	00094880 	sll	t1,t1,0x2
      c0:	24a50300 	addiu	a1,a1,768
      c4:	8d4b0000 	lw	t3,0(t2)
      c8:	8cc60000 	lw	a2,0(a2)
      cc:	01224821 	addu	t1,t1,v0
      d0:	00052880 	sll	a1,a1,0x2
      d4:	8d290000 	lw	t1,0(t1)
      d8:	00a22821 	addu	a1,a1,v0
      dc:	8c6a0008 	lw	t2,8(v1)
      e0:	8ca50000 	lw	a1,0(a1)
      e4:	01663021 	addu	a2,t3,a2
      e8:	00c93026 	xor	a2,a2,t1
      ec:	010a4026 	xor	t0,t0,t2
      f0:	00c53021 	addu	a2,a2,a1
      f4:	01063026 	xor	a2,t0,a2
      BF_ENC (r, l, s, p[3]);
      f8:	00065402 	srl	t2,a2,0x10
      fc:	00064a02 	srl	t1,a2,0x8
     100:	314a00ff 	andi	t2,t2,0xff
     104:	00062e02 	srl	a1,a2,0x18
     108:	254a0100 	addiu	t2,t2,256
     10c:	312900ff 	andi	t1,t1,0xff
     110:	30c800ff 	andi	t0,a2,0xff
     114:	000a5080 	sll	t2,t2,0x2
     118:	00052880 	sll	a1,a1,0x2
     11c:	25290200 	addiu	t1,t1,512
     120:	01425021 	addu	t2,t2,v0
     124:	00a22821 	addu	a1,a1,v0
     128:	00094880 	sll	t1,t1,0x2
     12c:	25080300 	addiu	t0,t0,768
     130:	8d4b0000 	lw	t3,0(t2)
     134:	01224821 	addu	t1,t1,v0
     138:	8ca50000 	lw	a1,0(a1)
     13c:	00084080 	sll	t0,t0,0x2
     140:	8d2a0000 	lw	t2,0(t1)
     144:	01024021 	addu	t0,t0,v0
     148:	8c69000c 	lw	t1,12(v1)
     14c:	8d080000 	lw	t0,0(t0)
     150:	01652821 	addu	a1,t3,a1
     154:	00aa2826 	xor	a1,a1,t2
     158:	00e93826 	xor	a3,a3,t1
     15c:	00a82821 	addu	a1,a1,t0
     160:	00e52826 	xor	a1,a3,a1
      BF_ENC (l, r, s, p[4]);
     164:	00055402 	srl	t2,a1,0x10
     168:	00054202 	srl	t0,a1,0x8
     16c:	314a00ff 	andi	t2,t2,0xff
     170:	00054e02 	srl	t1,a1,0x18
     174:	254a0100 	addiu	t2,t2,256
     178:	310800ff 	andi	t0,t0,0xff
     17c:	30a700ff 	andi	a3,a1,0xff
     180:	000a5080 	sll	t2,t2,0x2
     184:	00094880 	sll	t1,t1,0x2
     188:	25080200 	addiu	t0,t0,512
     18c:	01425021 	addu	t2,t2,v0
     190:	01224821 	addu	t1,t1,v0
     194:	00084080 	sll	t0,t0,0x2
     198:	24e70300 	addiu	a3,a3,768
     19c:	8d4b0000 	lw	t3,0(t2)
     1a0:	01024021 	addu	t0,t0,v0
     1a4:	8d2a0000 	lw	t2,0(t1)
     1a8:	00073880 	sll	a3,a3,0x2
     1ac:	8d090000 	lw	t1,0(t0)
     1b0:	00e23821 	addu	a3,a3,v0
     1b4:	8c680010 	lw	t0,16(v1)
     1b8:	8ce70000 	lw	a3,0(a3)
     1bc:	016a5021 	addu	t2,t3,t2
     1c0:	01495026 	xor	t2,t2,t1
     1c4:	00c83026 	xor	a2,a2,t0
     1c8:	01475021 	addu	t2,t2,a3
     1cc:	00ca5026 	xor	t2,a2,t2
      BF_ENC (r, l, s, p[5]);
     1d0:	000a4c02 	srl	t1,t2,0x10
     1d4:	000a3a02 	srl	a3,t2,0x8
     1d8:	312900ff 	andi	t1,t1,0xff
     1dc:	000a4602 	srl	t0,t2,0x18
     1e0:	25290100 	addiu	t1,t1,256
     1e4:	30e700ff 	andi	a3,a3,0xff
     1e8:	314600ff 	andi	a2,t2,0xff
     1ec:	00094880 	sll	t1,t1,0x2
     1f0:	00084080 	sll	t0,t0,0x2
     1f4:	24e70200 	addiu	a3,a3,512
     1f8:	01224821 	addu	t1,t1,v0
     1fc:	01024021 	addu	t0,t0,v0
     200:	00073880 	sll	a3,a3,0x2
     204:	24c60300 	addiu	a2,a2,768
     208:	8d2b0000 	lw	t3,0(t1)
     20c:	00e23821 	addu	a3,a3,v0
     210:	8d090000 	lw	t1,0(t0)
     214:	00063080 	sll	a2,a2,0x2
     218:	8ce80000 	lw	t0,0(a3)
     21c:	00c23021 	addu	a2,a2,v0
     220:	8c670014 	lw	a3,20(v1)
     224:	8cc60000 	lw	a2,0(a2)
     228:	01694821 	addu	t1,t3,t1
     22c:	01284826 	xor	t1,t1,t0
     230:	00a72826 	xor	a1,a1,a3
     234:	01264821 	addu	t1,t1,a2
     238:	00a94826 	xor	t1,a1,t1
      BF_ENC (l, r, s, p[6]);
     23c:	00094402 	srl	t0,t1,0x10
     240:	00093202 	srl	a2,t1,0x8
     244:	310800ff 	andi	t0,t0,0xff
     248:	00093e02 	srl	a3,t1,0x18
     24c:	25080100 	addiu	t0,t0,256
     250:	30c600ff 	andi	a2,a2,0xff
     254:	312500ff 	andi	a1,t1,0xff
     258:	00084080 	sll	t0,t0,0x2
     25c:	00073880 	sll	a3,a3,0x2
     260:	24c60200 	addiu	a2,a2,512
     264:	01024021 	addu	t0,t0,v0
     268:	00e23821 	addu	a3,a3,v0
     26c:	00063080 	sll	a2,a2,0x2
     270:	24a50300 	addiu	a1,a1,768
     274:	8d0b0000 	lw	t3,0(t0)
     278:	00c23021 	addu	a2,a2,v0
     27c:	8ce80000 	lw	t0,0(a3)
     280:	00052880 	sll	a1,a1,0x2
     284:	8cc70000 	lw	a3,0(a2)
     288:	00a22821 	addu	a1,a1,v0
     28c:	8c660018 	lw	a2,24(v1)
     290:	8ca50000 	lw	a1,0(a1)
     294:	01684021 	addu	t0,t3,t0
     298:	01074026 	xor	t0,t0,a3
     29c:	01465026 	xor	t2,t2,a2
     2a0:	01054021 	addu	t0,t0,a1
     2a4:	01484026 	xor	t0,t2,t0
      BF_ENC (r, l, s, p[7]);
     2a8:	00085402 	srl	t2,t0,0x10
     2ac:	00082a02 	srl	a1,t0,0x8
     2b0:	314a00ff 	andi	t2,t2,0xff
     2b4:	00083e02 	srl	a3,t0,0x18
     2b8:	254a0100 	addiu	t2,t2,256
     2bc:	30a500ff 	andi	a1,a1,0xff
     2c0:	310600ff 	andi	a2,t0,0xff
     2c4:	000a5080 	sll	t2,t2,0x2
     2c8:	00073880 	sll	a3,a3,0x2
     2cc:	24a50200 	addiu	a1,a1,512
     2d0:	01425021 	addu	t2,t2,v0
     2d4:	00e23821 	addu	a3,a3,v0
     2d8:	00052880 	sll	a1,a1,0x2
     2dc:	24c60300 	addiu	a2,a2,768
     2e0:	8d4b0000 	lw	t3,0(t2)
     2e4:	00a22821 	addu	a1,a1,v0
     2e8:	8ce70000 	lw	a3,0(a3)
     2ec:	00063080 	sll	a2,a2,0x2
     2f0:	8caa0000 	lw	t2,0(a1)
     2f4:	00c23021 	addu	a2,a2,v0
     2f8:	8c65001c 	lw	a1,28(v1)
     2fc:	8cc60000 	lw	a2,0(a2)
     300:	01673821 	addu	a3,t3,a3
     304:	00ea3826 	xor	a3,a3,t2
     308:	01254826 	xor	t1,t1,a1
     30c:	00e63821 	addu	a3,a3,a2
     310:	01273826 	xor	a3,t1,a3
      BF_ENC (l, r, s, p[8]);
     314:	00075402 	srl	t2,a3,0x10
     318:	00074a02 	srl	t1,a3,0x8
     31c:	314a00ff 	andi	t2,t2,0xff
     320:	00073602 	srl	a2,a3,0x18
     324:	254a0100 	addiu	t2,t2,256
     328:	312900ff 	andi	t1,t1,0xff
     32c:	30e500ff 	andi	a1,a3,0xff
     330:	000a5080 	sll	t2,t2,0x2
     334:	00063080 	sll	a2,a2,0x2
     338:	25290200 	addiu	t1,t1,512
     33c:	01425021 	addu	t2,t2,v0
     340:	00c23021 	addu	a2,a2,v0
     344:	00094880 	sll	t1,t1,0x2
     348:	24a50300 	addiu	a1,a1,768
     34c:	8d4b0000 	lw	t3,0(t2)
     350:	8cc60000 	lw	a2,0(a2)
     354:	01224821 	addu	t1,t1,v0
     358:	00052880 	sll	a1,a1,0x2
     35c:	8d290000 	lw	t1,0(t1)
     360:	00a22821 	addu	a1,a1,v0
     364:	8c6a0020 	lw	t2,32(v1)
     368:	8ca50000 	lw	a1,0(a1)
     36c:	01663021 	addu	a2,t3,a2
     370:	00c93026 	xor	a2,a2,t1
     374:	010a4026 	xor	t0,t0,t2
     378:	00c53021 	addu	a2,a2,a1
     37c:	01063026 	xor	a2,t0,a2
      BF_ENC (r, l, s, p[9]);
     380:	00065402 	srl	t2,a2,0x10
     384:	00064a02 	srl	t1,a2,0x8
     388:	314a00ff 	andi	t2,t2,0xff
     38c:	00062e02 	srl	a1,a2,0x18
     390:	254a0100 	addiu	t2,t2,256
     394:	312900ff 	andi	t1,t1,0xff
     398:	30c800ff 	andi	t0,a2,0xff
     39c:	000a5080 	sll	t2,t2,0x2
     3a0:	00052880 	sll	a1,a1,0x2
     3a4:	25290200 	addiu	t1,t1,512
     3a8:	01425021 	addu	t2,t2,v0
     3ac:	00a22821 	addu	a1,a1,v0
     3b0:	00094880 	sll	t1,t1,0x2
     3b4:	25080300 	addiu	t0,t0,768
     3b8:	8d4b0000 	lw	t3,0(t2)
     3bc:	01224821 	addu	t1,t1,v0
     3c0:	8ca50000 	lw	a1,0(a1)
     3c4:	00084080 	sll	t0,t0,0x2
     3c8:	8d2a0000 	lw	t2,0(t1)
     3cc:	01024021 	addu	t0,t0,v0
     3d0:	8c690024 	lw	t1,36(v1)
     3d4:	8d080000 	lw	t0,0(t0)
     3d8:	01652821 	addu	a1,t3,a1
     3dc:	00aa2826 	xor	a1,a1,t2
     3e0:	00e93826 	xor	a3,a3,t1
     3e4:	00a82821 	addu	a1,a1,t0
     3e8:	00e52826 	xor	a1,a3,a1
      BF_ENC (l, r, s, p[10]);
     3ec:	00055402 	srl	t2,a1,0x10
     3f0:	00054202 	srl	t0,a1,0x8
     3f4:	314a00ff 	andi	t2,t2,0xff
     3f8:	00054e02 	srl	t1,a1,0x18
     3fc:	254a0100 	addiu	t2,t2,256
     400:	310800ff 	andi	t0,t0,0xff
     404:	30a700ff 	andi	a3,a1,0xff
     408:	000a5080 	sll	t2,t2,0x2
     40c:	00094880 	sll	t1,t1,0x2
     410:	25080200 	addiu	t0,t0,512
     414:	01425021 	addu	t2,t2,v0
     418:	01224821 	addu	t1,t1,v0
     41c:	00084080 	sll	t0,t0,0x2
     420:	24e70300 	addiu	a3,a3,768
     424:	8d4b0000 	lw	t3,0(t2)
     428:	01024021 	addu	t0,t0,v0
     42c:	8d2a0000 	lw	t2,0(t1)
     430:	00073880 	sll	a3,a3,0x2
     434:	8d090000 	lw	t1,0(t0)
     438:	00e23821 	addu	a3,a3,v0
     43c:	8c680028 	lw	t0,40(v1)
     440:	8ce70000 	lw	a3,0(a3)
     444:	016a5021 	addu	t2,t3,t2
     448:	01495026 	xor	t2,t2,t1
     44c:	00c83026 	xor	a2,a2,t0
     450:	01475021 	addu	t2,t2,a3
     454:	00ca5026 	xor	t2,a2,t2
      BF_ENC (r, l, s, p[11]);
     458:	000a4c02 	srl	t1,t2,0x10
     45c:	000a3a02 	srl	a3,t2,0x8
     460:	312900ff 	andi	t1,t1,0xff
     464:	000a4602 	srl	t0,t2,0x18
     468:	25290100 	addiu	t1,t1,256
     46c:	30e700ff 	andi	a3,a3,0xff
     470:	314600ff 	andi	a2,t2,0xff
     474:	00094880 	sll	t1,t1,0x2
     478:	00084080 	sll	t0,t0,0x2
     47c:	24e70200 	addiu	a3,a3,512
     480:	01224821 	addu	t1,t1,v0
     484:	01024021 	addu	t0,t0,v0
     488:	00073880 	sll	a3,a3,0x2
     48c:	24c60300 	addiu	a2,a2,768
     490:	8d2b0000 	lw	t3,0(t1)
     494:	00e23821 	addu	a3,a3,v0
     498:	8d090000 	lw	t1,0(t0)
     49c:	00063080 	sll	a2,a2,0x2
     4a0:	8ce80000 	lw	t0,0(a3)
     4a4:	00c23021 	addu	a2,a2,v0
     4a8:	8c67002c 	lw	a3,44(v1)
     4ac:	8cc60000 	lw	a2,0(a2)
     4b0:	01694821 	addu	t1,t3,t1
     4b4:	01284826 	xor	t1,t1,t0
     4b8:	00a72826 	xor	a1,a1,a3
     4bc:	01264821 	addu	t1,t1,a2
     4c0:	00a94826 	xor	t1,a1,t1
      BF_ENC (l, r, s, p[12]);
     4c4:	00094402 	srl	t0,t1,0x10
     4c8:	00093202 	srl	a2,t1,0x8
     4cc:	310800ff 	andi	t0,t0,0xff
     4d0:	00093e02 	srl	a3,t1,0x18
     4d4:	25080100 	addiu	t0,t0,256
     4d8:	30c600ff 	andi	a2,a2,0xff
     4dc:	312500ff 	andi	a1,t1,0xff
     4e0:	00084080 	sll	t0,t0,0x2
     4e4:	00073880 	sll	a3,a3,0x2
     4e8:	24c60200 	addiu	a2,a2,512
     4ec:	01024021 	addu	t0,t0,v0
     4f0:	00e23821 	addu	a3,a3,v0
     4f4:	00063080 	sll	a2,a2,0x2
     4f8:	24a50300 	addiu	a1,a1,768
     4fc:	8d0b0000 	lw	t3,0(t0)
     500:	00c23021 	addu	a2,a2,v0
     504:	8ce80000 	lw	t0,0(a3)
     508:	00052880 	sll	a1,a1,0x2
     50c:	8cc70000 	lw	a3,0(a2)
     510:	00a22821 	addu	a1,a1,v0
     514:	8c660030 	lw	a2,48(v1)
     518:	8ca50000 	lw	a1,0(a1)
     51c:	01684021 	addu	t0,t3,t0
     520:	01074026 	xor	t0,t0,a3
     524:	01465026 	xor	t2,t2,a2
     528:	01054021 	addu	t0,t0,a1
     52c:	01484026 	xor	t0,t2,t0
      BF_ENC (r, l, s, p[13]);
     530:	00085402 	srl	t2,t0,0x10
     534:	00082a02 	srl	a1,t0,0x8
     538:	314a00ff 	andi	t2,t2,0xff
     53c:	00083e02 	srl	a3,t0,0x18
     540:	254a0100 	addiu	t2,t2,256
     544:	30a500ff 	andi	a1,a1,0xff
     548:	310600ff 	andi	a2,t0,0xff
     54c:	000a5080 	sll	t2,t2,0x2
     550:	00073880 	sll	a3,a3,0x2
     554:	24a50200 	addiu	a1,a1,512
     558:	01425021 	addu	t2,t2,v0
     55c:	00e23821 	addu	a3,a3,v0
     560:	00052880 	sll	a1,a1,0x2
     564:	24c60300 	addiu	a2,a2,768
     568:	8d4b0000 	lw	t3,0(t2)
     56c:	00a22821 	addu	a1,a1,v0
     570:	8ce70000 	lw	a3,0(a3)
     574:	00063080 	sll	a2,a2,0x2
     578:	8caa0000 	lw	t2,0(a1)
     57c:	00c23021 	addu	a2,a2,v0
     580:	8c650034 	lw	a1,52(v1)
     584:	8cc60000 	lw	a2,0(a2)
     588:	01673821 	addu	a3,t3,a3
     58c:	00ea3826 	xor	a3,a3,t2
     590:	01254826 	xor	t1,t1,a1
     594:	00e63821 	addu	a3,a3,a2
     598:	01273826 	xor	a3,t1,a3
      BF_ENC (l, r, s, p[14]);
     59c:	00075402 	srl	t2,a3,0x10
     5a0:	00074a02 	srl	t1,a3,0x8
     5a4:	314a00ff 	andi	t2,t2,0xff
     5a8:	00073602 	srl	a2,a3,0x18
     5ac:	254a0100 	addiu	t2,t2,256
     5b0:	312900ff 	andi	t1,t1,0xff
     5b4:	30e500ff 	andi	a1,a3,0xff
     5b8:	000a5080 	sll	t2,t2,0x2
     5bc:	00063080 	sll	a2,a2,0x2
     5c0:	25290200 	addiu	t1,t1,512
     5c4:	01425021 	addu	t2,t2,v0
     5c8:	00c23021 	addu	a2,a2,v0
     5cc:	00094880 	sll	t1,t1,0x2
     5d0:	24a50300 	addiu	a1,a1,768
     5d4:	8d4b0000 	lw	t3,0(t2)
     5d8:	01224821 	addu	t1,t1,v0
     5dc:	8cc60000 	lw	a2,0(a2)
     5e0:	00052880 	sll	a1,a1,0x2
     5e4:	8d2a0000 	lw	t2,0(t1)
     5e8:	00a22821 	addu	a1,a1,v0
     5ec:	8c690038 	lw	t1,56(v1)
     5f0:	8ca50000 	lw	a1,0(a1)
     5f4:	01663021 	addu	a2,t3,a2
     5f8:	00ca3026 	xor	a2,a2,t2
     5fc:	01094026 	xor	t0,t0,t1
     600:	00c53021 	addu	a2,a2,a1
     604:	01063026 	xor	a2,t0,a2
      BF_ENC (r, l, s, p[15]);
     608:	00065402 	srl	t2,a2,0x10
     60c:	00064a02 	srl	t1,a2,0x8
     610:	314a00ff 	andi	t2,t2,0xff
     614:	00062e02 	srl	a1,a2,0x18
     618:	254a0100 	addiu	t2,t2,256
     61c:	312900ff 	andi	t1,t1,0xff
     620:	30c800ff 	andi	t0,a2,0xff
     624:	000a5080 	sll	t2,t2,0x2
     628:	00052880 	sll	a1,a1,0x2
     62c:	25290200 	addiu	t1,t1,512
     630:	01425021 	addu	t2,t2,v0
     634:	00a22821 	addu	a1,a1,v0
     638:	00094880 	sll	t1,t1,0x2
     63c:	25080300 	addiu	t0,t0,768
     640:	8d4b0000 	lw	t3,0(t2)
     644:	01224821 	addu	t1,t1,v0
     648:	8ca50000 	lw	a1,0(a1)
     64c:	00084080 	sll	t0,t0,0x2
     650:	8d2a0000 	lw	t2,0(t1)
     654:	01024021 	addu	t0,t0,v0
     658:	8c69003c 	lw	t1,60(v1)
     65c:	8d080000 	lw	t0,0(t0)
     660:	01652821 	addu	a1,t3,a1
     664:	00aa2826 	xor	a1,a1,t2
     668:	00e93826 	xor	a3,a3,t1
     66c:	00a82821 	addu	a1,a1,t0
     670:	00e52826 	xor	a1,a3,a1
      BF_ENC (l, r, s, p[16]);
     674:	00055402 	srl	t2,a1,0x10
     678:	00054202 	srl	t0,a1,0x8
     67c:	314a00ff 	andi	t2,t2,0xff
     680:	00054e02 	srl	t1,a1,0x18
     684:	254a0100 	addiu	t2,t2,256
     688:	310800ff 	andi	t0,t0,0xff
     68c:	30a700ff 	andi	a3,a1,0xff
     690:	000a5080 	sll	t2,t2,0x2
     694:	00094880 	sll	t1,t1,0x2
     698:	25080200 	addiu	t0,t0,512
     69c:	01425021 	addu	t2,t2,v0
     6a0:	01224821 	addu	t1,t1,v0
     6a4:	00084080 	sll	t0,t0,0x2
     6a8:	24e70300 	addiu	a3,a3,768
     6ac:	8d4b0000 	lw	t3,0(t2)
     6b0:	01024021 	addu	t0,t0,v0
     6b4:	8d2a0000 	lw	t2,0(t1)
     6b8:	00073880 	sll	a3,a3,0x2
     6bc:	8d090000 	lw	t1,0(t0)
     6c0:	00e21021 	addu	v0,a3,v0
     6c4:	8c680040 	lw	t0,64(v1)
     6c8:	8c470000 	lw	a3,0(v0)
     6cc:	016a1021 	addu	v0,t3,t2
      r ^= p[BF_ROUNDS + 1];
     6d0:	8c630044 	lw	v1,68(v1)
      BF_ENC (r, l, s, p[11]);
      BF_ENC (l, r, s, p[12]);
      BF_ENC (r, l, s, p[13]);
      BF_ENC (l, r, s, p[14]);
      BF_ENC (r, l, s, p[15]);
      BF_ENC (l, r, s, p[16]);
     6d4:	00491026 	xor	v0,v0,t1
     6d8:	00c83026 	xor	a2,a2,t0
     6dc:	00471021 	addu	v0,v0,a3
      r ^= p[BF_ROUNDS + 1];
     6e0:	00a32826 	xor	a1,a1,v1
      BF_ENC (r, l, s, p[11]);
      BF_ENC (l, r, s, p[12]);
      BF_ENC (r, l, s, p[13]);
      BF_ENC (l, r, s, p[14]);
      BF_ENC (r, l, s, p[15]);
      BF_ENC (l, r, s, p[16]);
     6e4:	00c23026 	xor	a2,a2,v0
      BF_ENC (l, r, s, p[3]);
      BF_ENC (r, l, s, p[2]);
      BF_ENC (l, r, s, p[1]);
      r ^= p[0];
    }
  data[1] = l & 0xffffffff;
     6e8:	ac860004 	sw	a2,4(a0)
  data[0] = r & 0xffffffff;
}
     6ec:	03e00008 	jr	ra
     6f0:	ac850000 	sw	a1,0(a0)

000006f4 <BF_cfb64_encrypt.clone.1>:
 * used.  The extra state information to record how much of the
 * 64bit block we have used is contained in *num;
 */

void
BF_cfb64_encrypt (in, out, length, ivec, num, encrypt)
     6f4:	27bdffc8 	addiu	sp,sp,-56
     6f8:	afb00020 	sw	s0,32(sp)
     6fc:	8fb00048 	lw	s0,72(sp)
     700:	afb20028 	sw	s2,40(sp)
     704:	afb10024 	sw	s1,36(sp)
     708:	afbf0034 	sw	ra,52(sp)
     70c:	afb40030 	sw	s4,48(sp)
     710:	afb3002c 	sw	s3,44(sp)
  register int n;
  register long l;
  BF_LONG ti[2];
  unsigned char *iv, c, cc;

  n = *num;
     714:	8e120000 	lw	s2,0(s0)
  l = length;
  iv = (unsigned char *) ivec;
  if (encrypt)
    {
      while (l--)
     718:	10c00048 	beqz	a2,83c <BF_cfb64_encrypt.clone.1+0x148>
     71c:	00808821 	addu	s1,a0,zero
     720:	24d3ffff 	addiu	s3,a2,-1
	{
	  if (n == 0)
     724:	1240000f 	beqz	s2,764 <BF_cfb64_encrypt.clone.1+0x70>
     728:	27b40010 	addiu	s4,sp,16
	      t = ti[1];
	      l2n (t, iv);

	      iv = (unsigned char *) ivec;
	    }
	  c = *(in++) ^ iv[n];
     72c:	00f21021 	addu	v0,a3,s2
     730:	92230000 	lbu	v1,0(s1)
     734:	90440000 	lbu	a0,0(v0)
	  *(out++) = c;
	  iv[n] = c;
	  n = (n + 1) & 0x07;
     738:	26520001 	addiu	s2,s2,1
	      t = ti[1];
	      l2n (t, iv);

	      iv = (unsigned char *) ivec;
	    }
	  c = *(in++) ^ iv[n];
     73c:	00831826 	xor	v1,a0,v1
     740:	306300ff 	andi	v1,v1,0xff
	  *(out++) = c;
     744:	a0a30000 	sb	v1,0(a1)
	  iv[n] = c;
	  n = (n + 1) & 0x07;
     748:	32520007 	andi	s2,s2,0x7
  n = *num;
  l = length;
  iv = (unsigned char *) ivec;
  if (encrypt)
    {
      while (l--)
     74c:	1260003b 	beqz	s3,83c <BF_cfb64_encrypt.clone.1+0x148>
     750:	a0430000 	sb	v1,0(v0)
	      t = ti[1];
	      l2n (t, iv);

	      iv = (unsigned char *) ivec;
	    }
	  c = *(in++) ^ iv[n];
     754:	26310001 	addiu	s1,s1,1
	  *(out++) = c;
     758:	24a50001 	addiu	a1,a1,1
  iv = (unsigned char *) ivec;
  if (encrypt)
    {
      while (l--)
	{
	  if (n == 0)
     75c:	1640fff3 	bnez	s2,72c <BF_cfb64_encrypt.clone.1+0x38>
     760:	2673ffff 	addiu	s3,s3,-1
	    {
	      n2l (iv, v0);
     764:	90e60000 	lbu	a2,0(a3)
     768:	90e30001 	lbu	v1,1(a3)
	      ti[0] = v0;
	      n2l (iv, v1);
     76c:	90e40004 	lbu	a0,4(a3)
     770:	90e20005 	lbu	v0,5(a3)
    {
      while (l--)
	{
	  if (n == 0)
	    {
	      n2l (iv, v0);
     774:	90e90002 	lbu	t1,2(a3)
	      ti[0] = v0;
	      n2l (iv, v1);
     778:	90e80006 	lbu	t0,6(a3)
    {
      while (l--)
	{
	  if (n == 0)
	    {
	      n2l (iv, v0);
     77c:	00063600 	sll	a2,a2,0x18
	      ti[0] = v0;
	      n2l (iv, v1);
     780:	00042600 	sll	a0,a0,0x18
    {
      while (l--)
	{
	  if (n == 0)
	    {
	      n2l (iv, v0);
     784:	00031c00 	sll	v1,v1,0x10
	      ti[0] = v0;
	      n2l (iv, v1);
     788:	00021400 	sll	v0,v0,0x10
    {
      while (l--)
	{
	  if (n == 0)
	    {
	      n2l (iv, v0);
     78c:	00094a00 	sll	t1,t1,0x8
	      ti[0] = v0;
	      n2l (iv, v1);
     790:	00084200 	sll	t0,t0,0x8
    {
      while (l--)
	{
	  if (n == 0)
	    {
	      n2l (iv, v0);
     794:	00661825 	or	v1,v1,a2
	      ti[0] = v0;
	      n2l (iv, v1);
     798:	00441025 	or	v0,v0,a0
    {
      while (l--)
	{
	  if (n == 0)
	    {
	      n2l (iv, v0);
     79c:	90e60003 	lbu	a2,3(a3)
	      ti[0] = v0;
	      n2l (iv, v1);
     7a0:	90e40007 	lbu	a0,7(a3)
    {
      while (l--)
	{
	  if (n == 0)
	    {
	      n2l (iv, v0);
     7a4:	00691825 	or	v1,v1,t1
	      ti[0] = v0;
	      n2l (iv, v1);
     7a8:	00481025 	or	v0,v0,t0
    {
      while (l--)
	{
	  if (n == 0)
	    {
	      n2l (iv, v0);
     7ac:	00661825 	or	v1,v1,a2
	      ti[0] = v0;
	      n2l (iv, v1);
     7b0:	00441025 	or	v0,v0,a0
	      ti[1] = v1;
	      BF_encrypt ((unsigned long *) ti, BF_ENCRYPT);
     7b4:	02802021 	addu	a0,s4,zero
      while (l--)
	{
	  if (n == 0)
	    {
	      n2l (iv, v0);
	      ti[0] = v0;
     7b8:	afa30010 	sw	v1,16(sp)
	      n2l (iv, v1);
	      ti[1] = v1;
     7bc:	afa20014 	sw	v0,20(sp)
	      BF_encrypt ((unsigned long *) ti, BF_ENCRYPT);
     7c0:	afa50018 	sw	a1,24(sp)
     7c4:	0c000000 	jal	0 <BF_encrypt.clone.0>
     7c8:	afa7001c 	sw	a3,28(sp)
	      iv = (unsigned char *) ivec;
	      t = ti[0];
     7cc:	8fa30010 	lw	v1,16(sp)
	      l2n (t, iv);
	      t = ti[1];
     7d0:	8fa20014 	lw	v0,20(sp)
	      n2l (iv, v1);
	      ti[1] = v1;
	      BF_encrypt ((unsigned long *) ti, BF_ENCRYPT);
	      iv = (unsigned char *) ivec;
	      t = ti[0];
	      l2n (t, iv);
     7d4:	8fa7001c 	lw	a3,28(sp)
	      t = ti[1];
	      l2n (t, iv);
     7d8:	00022202 	srl	a0,v0,0x8
	      n2l (iv, v1);
	      ti[1] = v1;
	      BF_encrypt ((unsigned long *) ti, BF_ENCRYPT);
	      iv = (unsigned char *) ivec;
	      t = ti[0];
	      l2n (t, iv);
     7dc:	00035e02 	srl	t3,v1,0x18
     7e0:	00035402 	srl	t2,v1,0x10
     7e4:	00034a02 	srl	t1,v1,0x8
	      t = ti[1];
	      l2n (t, iv);
     7e8:	00024602 	srl	t0,v0,0x18
     7ec:	00023402 	srl	a2,v0,0x10
     7f0:	a0e20007 	sb	v0,7(a3)
	      n2l (iv, v1);
	      ti[1] = v1;
	      BF_encrypt ((unsigned long *) ti, BF_ENCRYPT);
	      iv = (unsigned char *) ivec;
	      t = ti[0];
	      l2n (t, iv);
     7f4:	a0eb0000 	sb	t3,0(a3)
     7f8:	a0ea0001 	sb	t2,1(a3)
     7fc:	a0e90002 	sb	t1,2(a3)
     800:	a0e30003 	sb	v1,3(a3)
	      t = ti[1];
	      l2n (t, iv);
     804:	a0e80004 	sb	t0,4(a3)
     808:	a0e60005 	sb	a2,5(a3)
     80c:	a0e40006 	sb	a0,6(a3)

	      iv = (unsigned char *) ivec;
	    }
	  c = *(in++) ^ iv[n];
     810:	00f21021 	addu	v0,a3,s2
     814:	92230000 	lbu	v1,0(s1)
     818:	90440000 	lbu	a0,0(v0)
	      BF_encrypt ((unsigned long *) ti, BF_ENCRYPT);
	      iv = (unsigned char *) ivec;
	      t = ti[0];
	      l2n (t, iv);
	      t = ti[1];
	      l2n (t, iv);
     81c:	8fa50018 	lw	a1,24(sp)

	      iv = (unsigned char *) ivec;
	    }
	  c = *(in++) ^ iv[n];
     820:	00831826 	xor	v1,a0,v1
     824:	306300ff 	andi	v1,v1,0xff
	  *(out++) = c;
	  iv[n] = c;
	  n = (n + 1) & 0x07;
     828:	26520001 	addiu	s2,s2,1
	      l2n (t, iv);

	      iv = (unsigned char *) ivec;
	    }
	  c = *(in++) ^ iv[n];
	  *(out++) = c;
     82c:	a0a30000 	sb	v1,0(a1)
	  iv[n] = c;
	  n = (n + 1) & 0x07;
     830:	32520007 	andi	s2,s2,0x7
  n = *num;
  l = length;
  iv = (unsigned char *) ivec;
  if (encrypt)
    {
      while (l--)
     834:	1660ffc7 	bnez	s3,754 <BF_cfb64_encrypt.clone.1+0x60>
     838:	a0430000 	sb	v1,0(v0)
	  n = (n + 1) & 0x07;
	}
    }
  v0 = v1 = ti[0] = ti[1] = t = c = cc = 0;
  *num = n;
}
     83c:	8fbf0034 	lw	ra,52(sp)
	  *(out++) = c ^ cc;
	  n = (n + 1) & 0x07;
	}
    }
  v0 = v1 = ti[0] = ti[1] = t = c = cc = 0;
  *num = n;
     840:	ae120000 	sw	s2,0(s0)
}
     844:	8fb40030 	lw	s4,48(sp)
     848:	8fb3002c 	lw	s3,44(sp)
     84c:	8fb20028 	lw	s2,40(sp)
     850:	8fb10024 	lw	s1,36(sp)
     854:	8fb00020 	lw	s0,32(sp)
     858:	03e00008 	jr	ra
     85c:	27bd0038 	addiu	sp,sp,56

00000860 <BF_set_key.clone.2>:
      p2++;
    }
}

void
BF_set_key (int len, unsigned char *data)
     860:	27bdffd0 	addiu	sp,sp,-48
     864:	afb40028 	sw	s4,40(sp)
     868:	3c020000 	lui	v0,0x0
memcpy (BF_LONG * s1, const BF_LONG * s2, int n)
{
  BF_LONG *p1;
  const BF_LONG *p2;

  p1 = s1;
     86c:	3c140000 	lui	s4,0x0
      p2++;
    }
}

void
BF_set_key (int len, unsigned char *data)
     870:	afb30024 	sw	s3,36(sp)
     874:	24420000 	addiu	v0,v0,0
memcpy (BF_LONG * s1, const BF_LONG * s2, int n)
{
  BF_LONG *p1;
  const BF_LONG *p2;

  p1 = s1;
     878:	26930000 	addiu	s3,s4,0
      p2++;
    }
}

void
BF_set_key (int len, unsigned char *data)
     87c:	afbf002c 	sw	ra,44(sp)
     880:	afb20020 	sw	s2,32(sp)
     884:	afb1001c 	sw	s1,28(sp)
     888:	afb00018 	sw	s0,24(sp)
     88c:	24460048 	addiu	a2,v0,72
memcpy (BF_LONG * s1, const BF_LONG * s2, int n)
{
  BF_LONG *p1;
  const BF_LONG *p2;

  p1 = s1;
     890:	02601821 	addu	v1,s3,zero
  p2 = s2;

  while (n-- > 0)
    {
      *p1 = *p2;
     894:	8c450000 	lw	a1,0(v0)
      p1++;
      p2++;
     898:	24420004 	addiu	v0,v0,4
  p1 = s1;
  p2 = s2;

  while (n-- > 0)
    {
      *p1 = *p2;
     89c:	ac650000 	sw	a1,0(v1)
  const BF_LONG *p2;

  p1 = s1;
  p2 = s2;

  while (n-- > 0)
     8a0:	1446fffc 	bne	v0,a2,894 <BF_set_key.clone.2+0x34>
     8a4:	24630004 	addiu	v1,v1,4
      p2++;
    }
}

void
BF_set_key (int len, unsigned char *data)
     8a8:	3c100000 	lui	s0,0x0
     8ac:	26100000 	addiu	s0,s0,0
     8b0:	26121000 	addiu	s2,s0,4096
     8b4:	3c030000 	lui	v1,0x0
     8b8:	02403021 	addu	a2,s2,zero
     8bc:	02001021 	addu	v0,s0,zero
     8c0:	24630000 	addiu	v1,v1,0
  p1 = s1;
  p2 = s2;

  while (n-- > 0)
    {
      *p1 = *p2;
     8c4:	8c650000 	lw	a1,0(v1)
     8c8:	00000000 	sll	zero,zero,0x0
     8cc:	ac450000 	sw	a1,0(v0)
      p1++;
     8d0:	24420004 	addiu	v0,v0,4
  const BF_LONG *p2;

  p1 = s1;
  p2 = s2;

  while (n-- > 0)
     8d4:	1446fffb 	bne	v0,a2,8c4 <BF_set_key.clone.2+0x64>
     8d8:	24630004 	addiu	v1,v1,4

  if (len > ((BF_ROUNDS + 2) * 4))
    len = (BF_ROUNDS + 2) * 4;

  d = data;
  end = &(data[len]);
     8dc:	24870008 	addiu	a3,a0,8
     8e0:	02601021 	addu	v0,s3,zero
      p2++;
    }
}

void
BF_set_key (int len, unsigned char *data)
     8e4:	26690048 	addiu	t1,s3,72
  p = key_P;

  if (len > ((BF_ROUNDS + 2) * 4))
    len = (BF_ROUNDS + 2) * 4;

  d = data;
     8e8:	00801821 	addu	v1,a0,zero
  end = &(data[len]);
  for (i = 0; i < (BF_ROUNDS + 2); i++)
    {
      ri = *(d++);
     8ec:	24660001 	addiu	a2,v1,1
      if (d >= end)
     8f0:	00c7282b 	sltu	a1,a2,a3

  d = data;
  end = &(data[len]);
  for (i = 0; i < (BF_ROUNDS + 2); i++)
    {
      ri = *(d++);
     8f4:	90680000 	lbu	t0,0(v1)
      if (d >= end)
     8f8:	14a00003 	bnez	a1,908 <BF_set_key.clone.2+0xa8>
     8fc:	24c50001 	addiu	a1,a2,1
	d = data;
     900:	00803021 	addu	a2,a0,zero

      ri <<= 8;
      ri |= *(d++);
     904:	24c50001 	addiu	a1,a2,1
     908:	90c60000 	lbu	a2,0(a2)
    {
      ri = *(d++);
      if (d >= end)
	d = data;

      ri <<= 8;
     90c:	00084200 	sll	t0,t0,0x8
      ri |= *(d++);
     910:	00c84025 	or	t0,a2,t0
      if (d >= end)
     914:	00a7182b 	sltu	v1,a1,a3
     918:	14600002 	bnez	v1,924 <BF_set_key.clone.2+0xc4>
     91c:	00084200 	sll	t0,t0,0x8
	d = data;
     920:	00802821 	addu	a1,a0,zero

      ri <<= 8;
      ri |= *(d++);
     924:	24a30001 	addiu	v1,a1,1
     928:	90a50000 	lbu	a1,0(a1)
      if (d >= end)
     92c:	0067302b 	sltu	a2,v1,a3
      ri |= *(d++);
      if (d >= end)
	d = data;

      ri <<= 8;
      ri |= *(d++);
     930:	00a82825 	or	a1,a1,t0
      if (d >= end)
     934:	14c00002 	bnez	a2,940 <BF_set_key.clone.2+0xe0>
     938:	00052a00 	sll	a1,a1,0x8
	d = data;
     93c:	00801821 	addu	v1,a0,zero

      ri <<= 8;
      ri |= *(d++);
     940:	90680000 	lbu	t0,0(v1)
     944:	24630001 	addiu	v1,v1,1
      if (d >= end)
     948:	0067302b 	sltu	a2,v1,a3
     94c:	14c00002 	bnez	a2,958 <BF_set_key.clone.2+0xf8>
     950:	01052825 	or	a1,t0,a1
	d = data;
     954:	00801821 	addu	v1,a0,zero

      p[i] ^= ri;
     958:	8c460000 	lw	a2,0(v0)
     95c:	00000000 	sll	zero,zero,0x0
     960:	00c52826 	xor	a1,a2,a1
     964:	ac450000 	sw	a1,0(v0)
     968:	24420004 	addiu	v0,v0,4
  if (len > ((BF_ROUNDS + 2) * 4))
    len = (BF_ROUNDS + 2) * 4;

  d = data;
  end = &(data[len]);
  for (i = 0; i < (BF_ROUNDS + 2); i++)
     96c:	1449ffe0 	bne	v0,t1,8f0 <BF_set_key.clone.2+0x90>
     970:	24660001 	addiu	a2,v1,1

  in[0] = 0L;
  in[1] = 0L;
  for (i = 0; i < (BF_ROUNDS + 2); i += 2)
    {
      BF_encrypt (in, BF_ENCRYPT);
     974:	27b10010 	addiu	s1,sp,16
     978:	02202021 	addu	a0,s1,zero
	d = data;

      p[i] ^= ri;
    }

  in[0] = 0L;
     97c:	afa00010 	sw	zero,16(sp)
  in[1] = 0L;
  for (i = 0; i < (BF_ROUNDS + 2); i += 2)
    {
      BF_encrypt (in, BF_ENCRYPT);
     980:	0c000000 	jal	0 <BF_encrypt.clone.0>
     984:	afa00014 	sw	zero,20(sp)
      p[i] = in[0];
     988:	8fa20010 	lw	v0,16(sp)

  in[0] = 0L;
  in[1] = 0L;
  for (i = 0; i < (BF_ROUNDS + 2); i += 2)
    {
      BF_encrypt (in, BF_ENCRYPT);
     98c:	02202021 	addu	a0,s1,zero
      p[i] = in[0];
     990:	ae820000 	sw	v0,0(s4)
      p[i + 1] = in[1];
     994:	8fa20014 	lw	v0,20(sp)

  in[0] = 0L;
  in[1] = 0L;
  for (i = 0; i < (BF_ROUNDS + 2); i += 2)
    {
      BF_encrypt (in, BF_ENCRYPT);
     998:	0c000000 	jal	0 <BF_encrypt.clone.0>
     99c:	ae620004 	sw	v0,4(s3)
      p[i] = in[0];
     9a0:	8fa20010 	lw	v0,16(sp)

  in[0] = 0L;
  in[1] = 0L;
  for (i = 0; i < (BF_ROUNDS + 2); i += 2)
    {
      BF_encrypt (in, BF_ENCRYPT);
     9a4:	02202021 	addu	a0,s1,zero
      p[i] = in[0];
     9a8:	ae620008 	sw	v0,8(s3)
      p[i + 1] = in[1];
     9ac:	8fa20014 	lw	v0,20(sp)

  in[0] = 0L;
  in[1] = 0L;
  for (i = 0; i < (BF_ROUNDS + 2); i += 2)
    {
      BF_encrypt (in, BF_ENCRYPT);
     9b0:	0c000000 	jal	0 <BF_encrypt.clone.0>
     9b4:	ae62000c 	sw	v0,12(s3)
      p[i] = in[0];
     9b8:	8fa20010 	lw	v0,16(sp)

  in[0] = 0L;
  in[1] = 0L;
  for (i = 0; i < (BF_ROUNDS + 2); i += 2)
    {
      BF_encrypt (in, BF_ENCRYPT);
     9bc:	02202021 	addu	a0,s1,zero
      p[i] = in[0];
     9c0:	ae620010 	sw	v0,16(s3)
      p[i + 1] = in[1];
     9c4:	8fa20014 	lw	v0,20(sp)

  in[0] = 0L;
  in[1] = 0L;
  for (i = 0; i < (BF_ROUNDS + 2); i += 2)
    {
      BF_encrypt (in, BF_ENCRYPT);
     9c8:	0c000000 	jal	0 <BF_encrypt.clone.0>
     9cc:	ae620014 	sw	v0,20(s3)
      p[i] = in[0];
     9d0:	8fa20010 	lw	v0,16(sp)

  in[0] = 0L;
  in[1] = 0L;
  for (i = 0; i < (BF_ROUNDS + 2); i += 2)
    {
      BF_encrypt (in, BF_ENCRYPT);
     9d4:	02202021 	addu	a0,s1,zero
      p[i] = in[0];
     9d8:	ae620018 	sw	v0,24(s3)
      p[i + 1] = in[1];
     9dc:	8fa20014 	lw	v0,20(sp)

  in[0] = 0L;
  in[1] = 0L;
  for (i = 0; i < (BF_ROUNDS + 2); i += 2)
    {
      BF_encrypt (in, BF_ENCRYPT);
     9e0:	0c000000 	jal	0 <BF_encrypt.clone.0>
     9e4:	ae62001c 	sw	v0,28(s3)
      p[i] = in[0];
     9e8:	8fa20010 	lw	v0,16(sp)

  in[0] = 0L;
  in[1] = 0L;
  for (i = 0; i < (BF_ROUNDS + 2); i += 2)
    {
      BF_encrypt (in, BF_ENCRYPT);
     9ec:	02202021 	addu	a0,s1,zero
      p[i] = in[0];
     9f0:	ae620020 	sw	v0,32(s3)
      p[i + 1] = in[1];
     9f4:	8fa20014 	lw	v0,20(sp)

  in[0] = 0L;
  in[1] = 0L;
  for (i = 0; i < (BF_ROUNDS + 2); i += 2)
    {
      BF_encrypt (in, BF_ENCRYPT);
     9f8:	0c000000 	jal	0 <BF_encrypt.clone.0>
     9fc:	ae620024 	sw	v0,36(s3)
      p[i] = in[0];
     a00:	8fa20010 	lw	v0,16(sp)

  in[0] = 0L;
  in[1] = 0L;
  for (i = 0; i < (BF_ROUNDS + 2); i += 2)
    {
      BF_encrypt (in, BF_ENCRYPT);
     a04:	02202021 	addu	a0,s1,zero
      p[i] = in[0];
     a08:	ae620028 	sw	v0,40(s3)
      p[i + 1] = in[1];
     a0c:	8fa20014 	lw	v0,20(sp)

  in[0] = 0L;
  in[1] = 0L;
  for (i = 0; i < (BF_ROUNDS + 2); i += 2)
    {
      BF_encrypt (in, BF_ENCRYPT);
     a10:	0c000000 	jal	0 <BF_encrypt.clone.0>
     a14:	ae62002c 	sw	v0,44(s3)
      p[i] = in[0];
     a18:	8fa20010 	lw	v0,16(sp)

  in[0] = 0L;
  in[1] = 0L;
  for (i = 0; i < (BF_ROUNDS + 2); i += 2)
    {
      BF_encrypt (in, BF_ENCRYPT);
     a1c:	02202021 	addu	a0,s1,zero
      p[i] = in[0];
     a20:	ae620030 	sw	v0,48(s3)
      p[i + 1] = in[1];
     a24:	8fa20014 	lw	v0,20(sp)

  in[0] = 0L;
  in[1] = 0L;
  for (i = 0; i < (BF_ROUNDS + 2); i += 2)
    {
      BF_encrypt (in, BF_ENCRYPT);
     a28:	0c000000 	jal	0 <BF_encrypt.clone.0>
     a2c:	ae620034 	sw	v0,52(s3)
      p[i] = in[0];
     a30:	8fa20010 	lw	v0,16(sp)

  in[0] = 0L;
  in[1] = 0L;
  for (i = 0; i < (BF_ROUNDS + 2); i += 2)
    {
      BF_encrypt (in, BF_ENCRYPT);
     a34:	02202021 	addu	a0,s1,zero
      p[i] = in[0];
     a38:	ae620038 	sw	v0,56(s3)
      p[i + 1] = in[1];
     a3c:	8fa20014 	lw	v0,20(sp)

  in[0] = 0L;
  in[1] = 0L;
  for (i = 0; i < (BF_ROUNDS + 2); i += 2)
    {
      BF_encrypt (in, BF_ENCRYPT);
     a40:	0c000000 	jal	0 <BF_encrypt.clone.0>
     a44:	ae62003c 	sw	v0,60(s3)
      p[i] = in[0];
     a48:	8fa20010 	lw	v0,16(sp)
     a4c:	00000000 	sll	zero,zero,0x0
     a50:	ae620040 	sw	v0,64(s3)
      p[i + 1] = in[1];
     a54:	8fa20014 	lw	v0,20(sp)
     a58:	00000000 	sll	zero,zero,0x0
     a5c:	ae620044 	sw	v0,68(s3)
    }

  p = key_S;
  for (i = 0; i < 4 * 256; i += 2)
    {
      BF_encrypt (in, BF_ENCRYPT);
     a60:	0c000000 	jal	0 <BF_encrypt.clone.0>
     a64:	02202021 	addu	a0,s1,zero
      p[i] = in[0];
     a68:	8fa20010 	lw	v0,16(sp)
     a6c:	00000000 	sll	zero,zero,0x0
     a70:	ae020000 	sw	v0,0(s0)
      p[i + 1] = in[1];
     a74:	8fa20014 	lw	v0,20(sp)
     a78:	00000000 	sll	zero,zero,0x0
     a7c:	ae020004 	sw	v0,4(s0)
     a80:	26100008 	addiu	s0,s0,8
      p[i] = in[0];
      p[i + 1] = in[1];
    }

  p = key_S;
  for (i = 0; i < 4 * 256; i += 2)
     a84:	1650fff6 	bne	s2,s0,a60 <BF_set_key.clone.2+0x200>
     a88:	00000000 	sll	zero,zero,0x0
      BF_encrypt (in, BF_ENCRYPT);
      p[i] = in[0];
      p[i + 1] = in[1];
    }

}
     a8c:	8fbf002c 	lw	ra,44(sp)
     a90:	8fb40028 	lw	s4,40(sp)
     a94:	8fb30024 	lw	s3,36(sp)
     a98:	8fb20020 	lw	s2,32(sp)
     a9c:	8fb1001c 	lw	s1,28(sp)
     aa0:	8fb00018 	lw	s0,24(sp)
     aa4:	03e00008 	jr	ra
     aa8:	27bd0030 	addiu	sp,sp,48

00000aac <memcpy>:
  const BF_LONG *p2;

  p1 = s1;
  p2 = s2;

  while (n-- > 0)
     aac:	18c00008 	blez	a2,ad0 <memcpy+0x24>
     ab0:	24c6ffff 	addiu	a2,a2,-1
     ab4:	2403ffff 	addiu	v1,zero,-1
    {
      *p1 = *p2;
     ab8:	8ca20000 	lw	v0,0(a1)
  const BF_LONG *p2;

  p1 = s1;
  p2 = s2;

  while (n-- > 0)
     abc:	24c6ffff 	addiu	a2,a2,-1
    {
      *p1 = *p2;
     ac0:	ac820000 	sw	v0,0(a0)
      p1++;
      p2++;
     ac4:	24a50004 	addiu	a1,a1,4
  const BF_LONG *p2;

  p1 = s1;
  p2 = s2;

  while (n-- > 0)
     ac8:	14c3fffb 	bne	a2,v1,ab8 <memcpy+0xc>
     acc:	24840004 	addiu	a0,a0,4
     ad0:	03e00008 	jr	ra
     ad4:	00000000 	sll	zero,zero,0x0

00000ad8 <BF_set_key>:
    }
}

void
BF_set_key (int len, unsigned char *data)
{
     ad8:	27bdffd0 	addiu	sp,sp,-48
     adc:	afb1001c 	sw	s1,28(sp)
      p2++;
    }
}

void
BF_set_key (int len, unsigned char *data)
     ae0:	3c020000 	lui	v0,0x0
memcpy (BF_LONG * s1, const BF_LONG * s2, int n)
{
  BF_LONG *p1;
  const BF_LONG *p2;

  p1 = s1;
     ae4:	3c110000 	lui	s1,0x0
    }
}

void
BF_set_key (int len, unsigned char *data)
{
     ae8:	afb00018 	sw	s0,24(sp)
      p2++;
    }
}

void
BF_set_key (int len, unsigned char *data)
     aec:	24420000 	addiu	v0,v0,0
memcpy (BF_LONG * s1, const BF_LONG * s2, int n)
{
  BF_LONG *p1;
  const BF_LONG *p2;

  p1 = s1;
     af0:	26300000 	addiu	s0,s1,0
    }
}

void
BF_set_key (int len, unsigned char *data)
{
     af4:	afbf002c 	sw	ra,44(sp)
     af8:	afb40028 	sw	s4,40(sp)
     afc:	afb30024 	sw	s3,36(sp)
     b00:	afb20020 	sw	s2,32(sp)
      p2++;
    }
}

void
BF_set_key (int len, unsigned char *data)
     b04:	24470048 	addiu	a3,v0,72
memcpy (BF_LONG * s1, const BF_LONG * s2, int n)
{
  BF_LONG *p1;
  const BF_LONG *p2;

  p1 = s1;
     b08:	02001821 	addu	v1,s0,zero
  p2 = s2;

  while (n-- > 0)
    {
      *p1 = *p2;
     b0c:	8c460000 	lw	a2,0(v0)
      p1++;
      p2++;
     b10:	24420004 	addiu	v0,v0,4
  p1 = s1;
  p2 = s2;

  while (n-- > 0)
    {
      *p1 = *p2;
     b14:	ac660000 	sw	a2,0(v1)
  const BF_LONG *p2;

  p1 = s1;
  p2 = s2;

  while (n-- > 0)
     b18:	1447fffc 	bne	v0,a3,b0c <BF_set_key+0x34>
     b1c:	24630004 	addiu	v1,v1,4
      p2++;
    }
}

void
BF_set_key (int len, unsigned char *data)
     b20:	3c140000 	lui	s4,0x0
     b24:	26940000 	addiu	s4,s4,0
     b28:	26931000 	addiu	s3,s4,4096
     b2c:	3c030000 	lui	v1,0x0
     b30:	02603821 	addu	a3,s3,zero
     b34:	02801021 	addu	v0,s4,zero
     b38:	24630000 	addiu	v1,v1,0
  p1 = s1;
  p2 = s2;

  while (n-- > 0)
    {
      *p1 = *p2;
     b3c:	8c660000 	lw	a2,0(v1)
     b40:	00000000 	sll	zero,zero,0x0
     b44:	ac460000 	sw	a2,0(v0)
      p1++;
     b48:	24420004 	addiu	v0,v0,4
  const BF_LONG *p2;

  p1 = s1;
  p2 = s2;

  while (n-- > 0)
     b4c:	1447fffb 	bne	v0,a3,b3c <BF_set_key+0x64>
     b50:	24630004 	addiu	v1,v1,4

  if (len > ((BF_ROUNDS + 2) * 4))
    len = (BF_ROUNDS + 2) * 4;

  d = data;
  end = &(data[len]);
     b54:	28820049 	slti	v0,a0,73
     b58:	14400003 	bnez	v0,b68 <BF_set_key+0x90>
     b5c:	00a42021 	addu	a0,a1,a0
     b60:	24040048 	addiu	a0,zero,72
     b64:	00a42021 	addu	a0,a1,a0
     b68:	02001021 	addu	v0,s0,zero
      p2++;
    }
}

void
BF_set_key (int len, unsigned char *data)
     b6c:	26090048 	addiu	t1,s0,72
  p = key_P;

  if (len > ((BF_ROUNDS + 2) * 4))
    len = (BF_ROUNDS + 2) * 4;

  d = data;
     b70:	00a01821 	addu	v1,a1,zero
  end = &(data[len]);
  for (i = 0; i < (BF_ROUNDS + 2); i++)
    {
      ri = *(d++);
     b74:	24670001 	addiu	a3,v1,1
      if (d >= end)
     b78:	00e4302b 	sltu	a2,a3,a0

  d = data;
  end = &(data[len]);
  for (i = 0; i < (BF_ROUNDS + 2); i++)
    {
      ri = *(d++);
     b7c:	90680000 	lbu	t0,0(v1)
      if (d >= end)
     b80:	14c00003 	bnez	a2,b90 <BF_set_key+0xb8>
     b84:	24e60001 	addiu	a2,a3,1
	d = data;
     b88:	00a03821 	addu	a3,a1,zero

      ri <<= 8;
      ri |= *(d++);
     b8c:	24e60001 	addiu	a2,a3,1
     b90:	90e70000 	lbu	a3,0(a3)
    {
      ri = *(d++);
      if (d >= end)
	d = data;

      ri <<= 8;
     b94:	00084200 	sll	t0,t0,0x8
      ri |= *(d++);
     b98:	00e84025 	or	t0,a3,t0
      if (d >= end)
     b9c:	00c4182b 	sltu	v1,a2,a0
     ba0:	14600002 	bnez	v1,bac <BF_set_key+0xd4>
     ba4:	00084200 	sll	t0,t0,0x8
	d = data;
     ba8:	00a03021 	addu	a2,a1,zero

      ri <<= 8;
      ri |= *(d++);
     bac:	24c30001 	addiu	v1,a2,1
     bb0:	90c60000 	lbu	a2,0(a2)
      if (d >= end)
     bb4:	0064382b 	sltu	a3,v1,a0
      ri |= *(d++);
      if (d >= end)
	d = data;

      ri <<= 8;
      ri |= *(d++);
     bb8:	00c83025 	or	a2,a2,t0
      if (d >= end)
     bbc:	14e00002 	bnez	a3,bc8 <BF_set_key+0xf0>
     bc0:	00063200 	sll	a2,a2,0x8
	d = data;
     bc4:	00a01821 	addu	v1,a1,zero

      ri <<= 8;
      ri |= *(d++);
     bc8:	90680000 	lbu	t0,0(v1)
     bcc:	24630001 	addiu	v1,v1,1
      if (d >= end)
     bd0:	0064382b 	sltu	a3,v1,a0
     bd4:	14e00002 	bnez	a3,be0 <BF_set_key+0x108>
     bd8:	01063025 	or	a2,t0,a2
	d = data;
     bdc:	00a01821 	addu	v1,a1,zero

      p[i] ^= ri;
     be0:	8c470000 	lw	a3,0(v0)
     be4:	00000000 	sll	zero,zero,0x0
     be8:	00e63026 	xor	a2,a3,a2
     bec:	ac460000 	sw	a2,0(v0)
     bf0:	24420004 	addiu	v0,v0,4
  if (len > ((BF_ROUNDS + 2) * 4))
    len = (BF_ROUNDS + 2) * 4;

  d = data;
  end = &(data[len]);
  for (i = 0; i < (BF_ROUNDS + 2); i++)
     bf4:	1449ffe0 	bne	v0,t1,b78 <BF_set_key+0xa0>
     bf8:	24670001 	addiu	a3,v1,1

  in[0] = 0L;
  in[1] = 0L;
  for (i = 0; i < (BF_ROUNDS + 2); i += 2)
    {
      BF_encrypt (in, BF_ENCRYPT);
     bfc:	27b20010 	addiu	s2,sp,16
     c00:	02402021 	addu	a0,s2,zero
	d = data;

      p[i] ^= ri;
    }

  in[0] = 0L;
     c04:	afa00010 	sw	zero,16(sp)
  in[1] = 0L;
  for (i = 0; i < (BF_ROUNDS + 2); i += 2)
    {
      BF_encrypt (in, BF_ENCRYPT);
     c08:	0c000000 	jal	0 <BF_encrypt.clone.0>
     c0c:	afa00014 	sw	zero,20(sp)
      p[i] = in[0];
     c10:	8fa20010 	lw	v0,16(sp)

  in[0] = 0L;
  in[1] = 0L;
  for (i = 0; i < (BF_ROUNDS + 2); i += 2)
    {
      BF_encrypt (in, BF_ENCRYPT);
     c14:	02402021 	addu	a0,s2,zero
      p[i] = in[0];
     c18:	ae220000 	sw	v0,0(s1)
      p[i + 1] = in[1];
     c1c:	8fa20014 	lw	v0,20(sp)

  in[0] = 0L;
  in[1] = 0L;
  for (i = 0; i < (BF_ROUNDS + 2); i += 2)
    {
      BF_encrypt (in, BF_ENCRYPT);
     c20:	0c000000 	jal	0 <BF_encrypt.clone.0>
     c24:	ae020004 	sw	v0,4(s0)
      p[i] = in[0];
     c28:	8fa20010 	lw	v0,16(sp)

  in[0] = 0L;
  in[1] = 0L;
  for (i = 0; i < (BF_ROUNDS + 2); i += 2)
    {
      BF_encrypt (in, BF_ENCRYPT);
     c2c:	02402021 	addu	a0,s2,zero
      p[i] = in[0];
     c30:	ae020008 	sw	v0,8(s0)
      p[i + 1] = in[1];
     c34:	8fa20014 	lw	v0,20(sp)

  in[0] = 0L;
  in[1] = 0L;
  for (i = 0; i < (BF_ROUNDS + 2); i += 2)
    {
      BF_encrypt (in, BF_ENCRYPT);
     c38:	0c000000 	jal	0 <BF_encrypt.clone.0>
     c3c:	ae02000c 	sw	v0,12(s0)
      p[i] = in[0];
     c40:	8fa20010 	lw	v0,16(sp)

  in[0] = 0L;
  in[1] = 0L;
  for (i = 0; i < (BF_ROUNDS + 2); i += 2)
    {
      BF_encrypt (in, BF_ENCRYPT);
     c44:	02402021 	addu	a0,s2,zero
      p[i] = in[0];
     c48:	ae020010 	sw	v0,16(s0)
      p[i + 1] = in[1];
     c4c:	8fa20014 	lw	v0,20(sp)

  in[0] = 0L;
  in[1] = 0L;
  for (i = 0; i < (BF_ROUNDS + 2); i += 2)
    {
      BF_encrypt (in, BF_ENCRYPT);
     c50:	0c000000 	jal	0 <BF_encrypt.clone.0>
     c54:	ae020014 	sw	v0,20(s0)
      p[i] = in[0];
     c58:	8fa20010 	lw	v0,16(sp)

  in[0] = 0L;
  in[1] = 0L;
  for (i = 0; i < (BF_ROUNDS + 2); i += 2)
    {
      BF_encrypt (in, BF_ENCRYPT);
     c5c:	02402021 	addu	a0,s2,zero
      p[i] = in[0];
     c60:	ae020018 	sw	v0,24(s0)
      p[i + 1] = in[1];
     c64:	8fa20014 	lw	v0,20(sp)

  in[0] = 0L;
  in[1] = 0L;
  for (i = 0; i < (BF_ROUNDS + 2); i += 2)
    {
      BF_encrypt (in, BF_ENCRYPT);
     c68:	0c000000 	jal	0 <BF_encrypt.clone.0>
     c6c:	ae02001c 	sw	v0,28(s0)
      p[i] = in[0];
     c70:	8fa20010 	lw	v0,16(sp)

  in[0] = 0L;
  in[1] = 0L;
  for (i = 0; i < (BF_ROUNDS + 2); i += 2)
    {
      BF_encrypt (in, BF_ENCRYPT);
     c74:	02402021 	addu	a0,s2,zero
      p[i] = in[0];
     c78:	ae020020 	sw	v0,32(s0)
      p[i + 1] = in[1];
     c7c:	8fa20014 	lw	v0,20(sp)

  in[0] = 0L;
  in[1] = 0L;
  for (i = 0; i < (BF_ROUNDS + 2); i += 2)
    {
      BF_encrypt (in, BF_ENCRYPT);
     c80:	0c000000 	jal	0 <BF_encrypt.clone.0>
     c84:	ae020024 	sw	v0,36(s0)
      p[i] = in[0];
     c88:	8fa20010 	lw	v0,16(sp)

  in[0] = 0L;
  in[1] = 0L;
  for (i = 0; i < (BF_ROUNDS + 2); i += 2)
    {
      BF_encrypt (in, BF_ENCRYPT);
     c8c:	02402021 	addu	a0,s2,zero
      p[i] = in[0];
     c90:	ae020028 	sw	v0,40(s0)
      p[i + 1] = in[1];
     c94:	8fa20014 	lw	v0,20(sp)

  in[0] = 0L;
  in[1] = 0L;
  for (i = 0; i < (BF_ROUNDS + 2); i += 2)
    {
      BF_encrypt (in, BF_ENCRYPT);
     c98:	0c000000 	jal	0 <BF_encrypt.clone.0>
     c9c:	ae02002c 	sw	v0,44(s0)
      p[i] = in[0];
     ca0:	8fa20010 	lw	v0,16(sp)

  in[0] = 0L;
  in[1] = 0L;
  for (i = 0; i < (BF_ROUNDS + 2); i += 2)
    {
      BF_encrypt (in, BF_ENCRYPT);
     ca4:	02402021 	addu	a0,s2,zero
      p[i] = in[0];
     ca8:	ae020030 	sw	v0,48(s0)
      p[i + 1] = in[1];
     cac:	8fa20014 	lw	v0,20(sp)

  in[0] = 0L;
  in[1] = 0L;
  for (i = 0; i < (BF_ROUNDS + 2); i += 2)
    {
      BF_encrypt (in, BF_ENCRYPT);
     cb0:	0c000000 	jal	0 <BF_encrypt.clone.0>
     cb4:	ae020034 	sw	v0,52(s0)
      p[i] = in[0];
     cb8:	8fa20010 	lw	v0,16(sp)

  in[0] = 0L;
  in[1] = 0L;
  for (i = 0; i < (BF_ROUNDS + 2); i += 2)
    {
      BF_encrypt (in, BF_ENCRYPT);
     cbc:	02402021 	addu	a0,s2,zero
      p[i] = in[0];
     cc0:	ae020038 	sw	v0,56(s0)
      p[i + 1] = in[1];
     cc4:	8fa20014 	lw	v0,20(sp)

  in[0] = 0L;
  in[1] = 0L;
  for (i = 0; i < (BF_ROUNDS + 2); i += 2)
    {
      BF_encrypt (in, BF_ENCRYPT);
     cc8:	0c000000 	jal	0 <BF_encrypt.clone.0>
     ccc:	ae02003c 	sw	v0,60(s0)
      p[i] = in[0];
     cd0:	8fa20010 	lw	v0,16(sp)
     cd4:	00000000 	sll	zero,zero,0x0
     cd8:	ae020040 	sw	v0,64(s0)
      p[i + 1] = in[1];
     cdc:	8fa20014 	lw	v0,20(sp)
     ce0:	00000000 	sll	zero,zero,0x0
     ce4:	ae020044 	sw	v0,68(s0)
     ce8:	02808021 	addu	s0,s4,zero
    }

  p = key_S;
  for (i = 0; i < 4 * 256; i += 2)
    {
      BF_encrypt (in, BF_ENCRYPT);
     cec:	0c000000 	jal	0 <BF_encrypt.clone.0>
     cf0:	02402021 	addu	a0,s2,zero
      p[i] = in[0];
     cf4:	8fa20010 	lw	v0,16(sp)
     cf8:	00000000 	sll	zero,zero,0x0
     cfc:	ae020000 	sw	v0,0(s0)
      p[i + 1] = in[1];
     d00:	8fa20014 	lw	v0,20(sp)
     d04:	00000000 	sll	zero,zero,0x0
     d08:	ae020004 	sw	v0,4(s0)
     d0c:	26100008 	addiu	s0,s0,8
      p[i] = in[0];
      p[i + 1] = in[1];
    }

  p = key_S;
  for (i = 0; i < 4 * 256; i += 2)
     d10:	1670fff6 	bne	s3,s0,cec <BF_set_key+0x214>
     d14:	00000000 	sll	zero,zero,0x0
      BF_encrypt (in, BF_ENCRYPT);
      p[i] = in[0];
      p[i + 1] = in[1];
    }

}
     d18:	8fbf002c 	lw	ra,44(sp)
     d1c:	8fb40028 	lw	s4,40(sp)
     d20:	8fb30024 	lw	s3,36(sp)
     d24:	8fb20020 	lw	s2,32(sp)
     d28:	8fb1001c 	lw	s1,28(sp)
     d2c:	8fb00018 	lw	s0,24(sp)
     d30:	03e00008 	jr	ra
     d34:	27bd0030 	addiu	sp,sp,48

00000d38 <BF_cfb64_encrypt>:
     unsigned char *out;
     long length;
     unsigned char *ivec;
     int *num;
     int encrypt;
{
     d38:	27bdffc8 	addiu	sp,sp,-56
     d3c:	afb1001c 	sw	s1,28(sp)
  unsigned char *iv, c, cc;

  n = *num;
  l = length;
  iv = (unsigned char *) ivec;
  if (encrypt)
     d40:	8fa2004c 	lw	v0,76(sp)
     unsigned char *out;
     long length;
     unsigned char *ivec;
     int *num;
     int encrypt;
{
     d44:	8fb10048 	lw	s1,72(sp)
     d48:	afb40028 	sw	s4,40(sp)
     d4c:	afb30024 	sw	s3,36(sp)
     d50:	afb20020 	sw	s2,32(sp)
     d54:	afb00018 	sw	s0,24(sp)
     d58:	afbf0034 	sw	ra,52(sp)
     d5c:	afb60030 	sw	s6,48(sp)
     d60:	afb5002c 	sw	s5,44(sp)
     d64:	00808021 	addu	s0,a0,zero
     d68:	00a09021 	addu	s2,a1,zero
  register int n;
  register long l;
  BF_LONG ti[2];
  unsigned char *iv, c, cc;

  n = *num;
     d6c:	8e340000 	lw	s4,0(s1)
  l = length;
  iv = (unsigned char *) ivec;
  if (encrypt)
     d70:	1440004e 	bnez	v0,eac <BF_cfb64_encrypt+0x174>
     d74:	00e09821 	addu	s3,a3,zero
	  n = (n + 1) & 0x07;
	}
    }
  else
    {
      while (l--)
     d78:	10c00041 	beqz	a2,e80 <BF_cfb64_encrypt+0x148>
     d7c:	24d5ffff 	addiu	s5,a2,-1
	{
	  if (n == 0)
     d80:	1280000e 	beqz	s4,dbc <BF_cfb64_encrypt+0x84>
     d84:	27b60010 	addiu	s6,sp,16
	      t = ti[1];
	      l2n (t, iv);
	      iv = (unsigned char *) ivec;
	    }
	  cc = *(in++);
	  c = iv[n];
     d88:	02741021 	addu	v0,s3,s4
	      l2n (t, iv);
	      t = ti[1];
	      l2n (t, iv);
	      iv = (unsigned char *) ivec;
	    }
	  cc = *(in++);
     d8c:	92030000 	lbu	v1,0(s0)
	  c = iv[n];
     d90:	90440000 	lbu	a0,0(v0)
	  iv[n] = cc;
	  *(out++) = c ^ cc;
	  n = (n + 1) & 0x07;
     d94:	26940001 	addiu	s4,s4,1
	      iv = (unsigned char *) ivec;
	    }
	  cc = *(in++);
	  c = iv[n];
	  iv[n] = cc;
	  *(out++) = c ^ cc;
     d98:	00832026 	xor	a0,a0,v1
	      l2n (t, iv);
	      iv = (unsigned char *) ivec;
	    }
	  cc = *(in++);
	  c = iv[n];
	  iv[n] = cc;
     d9c:	a0430000 	sb	v1,0(v0)
	  *(out++) = c ^ cc;
	  n = (n + 1) & 0x07;
     da0:	32940007 	andi	s4,s4,0x7
	  n = (n + 1) & 0x07;
	}
    }
  else
    {
      while (l--)
     da4:	12a00036 	beqz	s5,e80 <BF_cfb64_encrypt+0x148>
     da8:	a2440000 	sb	a0,0(s2)
	      l2n (t, iv);
	      t = ti[1];
	      l2n (t, iv);
	      iv = (unsigned char *) ivec;
	    }
	  cc = *(in++);
     dac:	26100001 	addiu	s0,s0,1
	  c = iv[n];
	  iv[n] = cc;
	  *(out++) = c ^ cc;
     db0:	26520001 	addiu	s2,s2,1
    }
  else
    {
      while (l--)
	{
	  if (n == 0)
     db4:	1680fff4 	bnez	s4,d88 <BF_cfb64_encrypt+0x50>
     db8:	26b5ffff 	addiu	s5,s5,-1
	    {
	      n2l (iv, v0);
     dbc:	92650000 	lbu	a1,0(s3)
     dc0:	92630001 	lbu	v1,1(s3)
	      ti[0] = v0;
	      n2l (iv, v1);
     dc4:	92640004 	lbu	a0,4(s3)
     dc8:	92620005 	lbu	v0,5(s3)
    {
      while (l--)
	{
	  if (n == 0)
	    {
	      n2l (iv, v0);
     dcc:	92670002 	lbu	a3,2(s3)
	      ti[0] = v0;
	      n2l (iv, v1);
     dd0:	92660006 	lbu	a2,6(s3)
    {
      while (l--)
	{
	  if (n == 0)
	    {
	      n2l (iv, v0);
     dd4:	00052e00 	sll	a1,a1,0x18
	      ti[0] = v0;
	      n2l (iv, v1);
     dd8:	00042600 	sll	a0,a0,0x18
    {
      while (l--)
	{
	  if (n == 0)
	    {
	      n2l (iv, v0);
     ddc:	00031c00 	sll	v1,v1,0x10
	      ti[0] = v0;
	      n2l (iv, v1);
     de0:	00021400 	sll	v0,v0,0x10
    {
      while (l--)
	{
	  if (n == 0)
	    {
	      n2l (iv, v0);
     de4:	00073a00 	sll	a3,a3,0x8
	      ti[0] = v0;
	      n2l (iv, v1);
     de8:	00063200 	sll	a2,a2,0x8
    {
      while (l--)
	{
	  if (n == 0)
	    {
	      n2l (iv, v0);
     dec:	00651825 	or	v1,v1,a1
	      ti[0] = v0;
	      n2l (iv, v1);
     df0:	00441025 	or	v0,v0,a0
    {
      while (l--)
	{
	  if (n == 0)
	    {
	      n2l (iv, v0);
     df4:	92650003 	lbu	a1,3(s3)
	      ti[0] = v0;
	      n2l (iv, v1);
     df8:	92640007 	lbu	a0,7(s3)
    {
      while (l--)
	{
	  if (n == 0)
	    {
	      n2l (iv, v0);
     dfc:	00671825 	or	v1,v1,a3
	      ti[0] = v0;
	      n2l (iv, v1);
     e00:	00461025 	or	v0,v0,a2
    {
      while (l--)
	{
	  if (n == 0)
	    {
	      n2l (iv, v0);
     e04:	00651825 	or	v1,v1,a1
	      ti[0] = v0;
	      n2l (iv, v1);
     e08:	00441025 	or	v0,v0,a0
	      ti[1] = v1;
	      BF_encrypt ((unsigned long *) ti, BF_ENCRYPT);
     e0c:	02c02021 	addu	a0,s6,zero
      while (l--)
	{
	  if (n == 0)
	    {
	      n2l (iv, v0);
	      ti[0] = v0;
     e10:	afa30010 	sw	v1,16(sp)
	      n2l (iv, v1);
	      ti[1] = v1;
	      BF_encrypt ((unsigned long *) ti, BF_ENCRYPT);
     e14:	0c000000 	jal	0 <BF_encrypt.clone.0>
     e18:	afa20014 	sw	v0,20(sp)
	      iv = (unsigned char *) ivec;
	      t = ti[0];
     e1c:	8fa30010 	lw	v1,16(sp)
	      l2n (t, iv);
	      t = ti[1];
     e20:	8fa20014 	lw	v0,20(sp)
	      n2l (iv, v1);
	      ti[1] = v1;
	      BF_encrypt ((unsigned long *) ti, BF_ENCRYPT);
	      iv = (unsigned char *) ivec;
	      t = ti[0];
	      l2n (t, iv);
     e24:	00034e02 	srl	t1,v1,0x18
	      t = ti[1];
	      l2n (t, iv);
     e28:	00022202 	srl	a0,v0,0x8
	      n2l (iv, v1);
	      ti[1] = v1;
	      BF_encrypt ((unsigned long *) ti, BF_ENCRYPT);
	      iv = (unsigned char *) ivec;
	      t = ti[0];
	      l2n (t, iv);
     e2c:	00034402 	srl	t0,v1,0x10
     e30:	00033a02 	srl	a3,v1,0x8
	      t = ti[1];
	      l2n (t, iv);
     e34:	00023602 	srl	a2,v0,0x18
     e38:	00022c02 	srl	a1,v0,0x10
     e3c:	a2620007 	sb	v0,7(s3)
	      n2l (iv, v1);
	      ti[1] = v1;
	      BF_encrypt ((unsigned long *) ti, BF_ENCRYPT);
	      iv = (unsigned char *) ivec;
	      t = ti[0];
	      l2n (t, iv);
     e40:	a2690000 	sb	t1,0(s3)
     e44:	a2680001 	sb	t0,1(s3)
     e48:	a2670002 	sb	a3,2(s3)
     e4c:	a2630003 	sb	v1,3(s3)
	      t = ti[1];
	      l2n (t, iv);
     e50:	a2660004 	sb	a2,4(s3)
     e54:	a2650005 	sb	a1,5(s3)
     e58:	a2640006 	sb	a0,6(s3)
	      iv = (unsigned char *) ivec;
	    }
	  cc = *(in++);
	  c = iv[n];
     e5c:	02741021 	addu	v0,s3,s4
	      l2n (t, iv);
	      t = ti[1];
	      l2n (t, iv);
	      iv = (unsigned char *) ivec;
	    }
	  cc = *(in++);
     e60:	92030000 	lbu	v1,0(s0)
	  c = iv[n];
     e64:	90440000 	lbu	a0,0(v0)
	  iv[n] = cc;
	  *(out++) = c ^ cc;
	  n = (n + 1) & 0x07;
     e68:	26940001 	addiu	s4,s4,1
	      iv = (unsigned char *) ivec;
	    }
	  cc = *(in++);
	  c = iv[n];
	  iv[n] = cc;
	  *(out++) = c ^ cc;
     e6c:	00832026 	xor	a0,a0,v1
	      l2n (t, iv);
	      iv = (unsigned char *) ivec;
	    }
	  cc = *(in++);
	  c = iv[n];
	  iv[n] = cc;
     e70:	a0430000 	sb	v1,0(v0)
	  *(out++) = c ^ cc;
	  n = (n + 1) & 0x07;
     e74:	32940007 	andi	s4,s4,0x7
	  n = (n + 1) & 0x07;
	}
    }
  else
    {
      while (l--)
     e78:	16a0ffcc 	bnez	s5,dac <BF_cfb64_encrypt+0x74>
     e7c:	a2440000 	sb	a0,0(s2)
	  n = (n + 1) & 0x07;
	}
    }
  v0 = v1 = ti[0] = ti[1] = t = c = cc = 0;
  *num = n;
}
     e80:	8fbf0034 	lw	ra,52(sp)
	  *(out++) = c ^ cc;
	  n = (n + 1) & 0x07;
	}
    }
  v0 = v1 = ti[0] = ti[1] = t = c = cc = 0;
  *num = n;
     e84:	ae340000 	sw	s4,0(s1)
}
     e88:	8fb60030 	lw	s6,48(sp)
     e8c:	8fb5002c 	lw	s5,44(sp)
     e90:	8fb40028 	lw	s4,40(sp)
     e94:	8fb30024 	lw	s3,36(sp)
     e98:	8fb20020 	lw	s2,32(sp)
     e9c:	8fb1001c 	lw	s1,28(sp)
     ea0:	8fb00018 	lw	s0,24(sp)
     ea4:	03e00008 	jr	ra
     ea8:	27bd0038 	addiu	sp,sp,56
  n = *num;
  l = length;
  iv = (unsigned char *) ivec;
  if (encrypt)
    {
      while (l--)
     eac:	10c0fff4 	beqz	a2,e80 <BF_cfb64_encrypt+0x148>
     eb0:	24d5ffff 	addiu	s5,a2,-1
	{
	  if (n == 0)
     eb4:	1280000f 	beqz	s4,ef4 <BF_cfb64_encrypt+0x1bc>
     eb8:	27b60010 	addiu	s6,sp,16
	      t = ti[1];
	      l2n (t, iv);

	      iv = (unsigned char *) ivec;
	    }
	  c = *(in++) ^ iv[n];
     ebc:	02741021 	addu	v0,s3,s4
     ec0:	92030000 	lbu	v1,0(s0)
     ec4:	90440000 	lbu	a0,0(v0)
	  *(out++) = c;
	  iv[n] = c;
	  n = (n + 1) & 0x07;
     ec8:	26940001 	addiu	s4,s4,1
	      t = ti[1];
	      l2n (t, iv);

	      iv = (unsigned char *) ivec;
	    }
	  c = *(in++) ^ iv[n];
     ecc:	00831826 	xor	v1,a0,v1
     ed0:	306300ff 	andi	v1,v1,0xff
	  *(out++) = c;
     ed4:	a2430000 	sb	v1,0(s2)
	  iv[n] = c;
	  n = (n + 1) & 0x07;
     ed8:	32940007 	andi	s4,s4,0x7
  n = *num;
  l = length;
  iv = (unsigned char *) ivec;
  if (encrypt)
    {
      while (l--)
     edc:	12a0ffe8 	beqz	s5,e80 <BF_cfb64_encrypt+0x148>
     ee0:	a0430000 	sb	v1,0(v0)
	      t = ti[1];
	      l2n (t, iv);

	      iv = (unsigned char *) ivec;
	    }
	  c = *(in++) ^ iv[n];
     ee4:	26100001 	addiu	s0,s0,1
	  *(out++) = c;
     ee8:	26520001 	addiu	s2,s2,1
  iv = (unsigned char *) ivec;
  if (encrypt)
    {
      while (l--)
	{
	  if (n == 0)
     eec:	1680fff3 	bnez	s4,ebc <BF_cfb64_encrypt+0x184>
     ef0:	26b5ffff 	addiu	s5,s5,-1
	    {
	      n2l (iv, v0);
     ef4:	92650000 	lbu	a1,0(s3)
     ef8:	92630001 	lbu	v1,1(s3)
	      ti[0] = v0;
	      n2l (iv, v1);
     efc:	92640004 	lbu	a0,4(s3)
     f00:	92620005 	lbu	v0,5(s3)
    {
      while (l--)
	{
	  if (n == 0)
	    {
	      n2l (iv, v0);
     f04:	92670002 	lbu	a3,2(s3)
	      ti[0] = v0;
	      n2l (iv, v1);
     f08:	92660006 	lbu	a2,6(s3)
    {
      while (l--)
	{
	  if (n == 0)
	    {
	      n2l (iv, v0);
     f0c:	00052e00 	sll	a1,a1,0x18
	      ti[0] = v0;
	      n2l (iv, v1);
     f10:	00042600 	sll	a0,a0,0x18
    {
      while (l--)
	{
	  if (n == 0)
	    {
	      n2l (iv, v0);
     f14:	00031c00 	sll	v1,v1,0x10
	      ti[0] = v0;
	      n2l (iv, v1);
     f18:	00021400 	sll	v0,v0,0x10
    {
      while (l--)
	{
	  if (n == 0)
	    {
	      n2l (iv, v0);
     f1c:	00073a00 	sll	a3,a3,0x8
	      ti[0] = v0;
	      n2l (iv, v1);
     f20:	00063200 	sll	a2,a2,0x8
    {
      while (l--)
	{
	  if (n == 0)
	    {
	      n2l (iv, v0);
     f24:	00651825 	or	v1,v1,a1
	      ti[0] = v0;
	      n2l (iv, v1);
     f28:	00441025 	or	v0,v0,a0
    {
      while (l--)
	{
	  if (n == 0)
	    {
	      n2l (iv, v0);
     f2c:	92650003 	lbu	a1,3(s3)
	      ti[0] = v0;
	      n2l (iv, v1);
     f30:	92640007 	lbu	a0,7(s3)
    {
      while (l--)
	{
	  if (n == 0)
	    {
	      n2l (iv, v0);
     f34:	00671825 	or	v1,v1,a3
	      ti[0] = v0;
	      n2l (iv, v1);
     f38:	00461025 	or	v0,v0,a2
    {
      while (l--)
	{
	  if (n == 0)
	    {
	      n2l (iv, v0);
     f3c:	00651825 	or	v1,v1,a1
	      ti[0] = v0;
	      n2l (iv, v1);
     f40:	00441025 	or	v0,v0,a0
	      ti[1] = v1;
	      BF_encrypt ((unsigned long *) ti, BF_ENCRYPT);
     f44:	02c02021 	addu	a0,s6,zero
      while (l--)
	{
	  if (n == 0)
	    {
	      n2l (iv, v0);
	      ti[0] = v0;
     f48:	afa30010 	sw	v1,16(sp)
	      n2l (iv, v1);
	      ti[1] = v1;
	      BF_encrypt ((unsigned long *) ti, BF_ENCRYPT);
     f4c:	0c000000 	jal	0 <BF_encrypt.clone.0>
     f50:	afa20014 	sw	v0,20(sp)
	      iv = (unsigned char *) ivec;
	      t = ti[0];
     f54:	8fa30010 	lw	v1,16(sp)
	      l2n (t, iv);
	      t = ti[1];
     f58:	8fa20014 	lw	v0,20(sp)
	      n2l (iv, v1);
	      ti[1] = v1;
	      BF_encrypt ((unsigned long *) ti, BF_ENCRYPT);
	      iv = (unsigned char *) ivec;
	      t = ti[0];
	      l2n (t, iv);
     f5c:	00034e02 	srl	t1,v1,0x18
     f60:	00034402 	srl	t0,v1,0x10
     f64:	00033a02 	srl	a3,v1,0x8
	      t = ti[1];
	      l2n (t, iv);
     f68:	00023602 	srl	a2,v0,0x18
     f6c:	00022c02 	srl	a1,v0,0x10
     f70:	00022202 	srl	a0,v0,0x8
	      n2l (iv, v1);
	      ti[1] = v1;
	      BF_encrypt ((unsigned long *) ti, BF_ENCRYPT);
	      iv = (unsigned char *) ivec;
	      t = ti[0];
	      l2n (t, iv);
     f74:	a2690000 	sb	t1,0(s3)
     f78:	a2680001 	sb	t0,1(s3)
     f7c:	a2670002 	sb	a3,2(s3)
     f80:	a2630003 	sb	v1,3(s3)
	      t = ti[1];
	      l2n (t, iv);
     f84:	a2660004 	sb	a2,4(s3)
     f88:	a2650005 	sb	a1,5(s3)
     f8c:	a2640006 	sb	a0,6(s3)
     f90:	080003af 	j	ebc <BF_cfb64_encrypt+0x184>
     f94:	a2620007 	sb	v0,7(s3)

00000f98 <BF_encrypt>:
     int encrypt;
{
  register BF_LONG l, r, *p, *s;
  p = key_P;
  s = &(key_S[0]);
  l = data[0];
     f98:	8c830000 	lw	v1,0(a0)
  r = data[1];
     f9c:	8c820004 	lw	v0,4(a0)

  if (encrypt)
     fa0:	14a001bb 	bnez	a1,1690 <BF_encrypt+0x6f8>
     fa4:	3c0b0000 	lui	t3,0x0
      BF_ENC (l, r, s, p[16]);
      r ^= p[BF_ROUNDS + 1];
    }
  else
    {
      l ^= p[BF_ROUNDS + 1];
     fa8:	25660000 	addiu	a2,t3,0
     fac:	8cca0044 	lw	t2,68(a2)
      BF_ENC (r, l, s, p[16]);
     fb0:	3c050000 	lui	a1,0x0
      BF_ENC (l, r, s, p[16]);
      r ^= p[BF_ROUNDS + 1];
    }
  else
    {
      l ^= p[BF_ROUNDS + 1];
     fb4:	006a1826 	xor	v1,v1,t2
      BF_ENC (r, l, s, p[16]);
     fb8:	00035402 	srl	t2,v1,0x10
     fbc:	00034a02 	srl	t1,v1,0x8
     fc0:	314a00ff 	andi	t2,t2,0xff
     fc4:	00033e02 	srl	a3,v1,0x18
     fc8:	254a0100 	addiu	t2,t2,256
     fcc:	312900ff 	andi	t1,t1,0xff
     fd0:	24a50000 	addiu	a1,a1,0
     fd4:	306800ff 	andi	t0,v1,0xff
     fd8:	000a5080 	sll	t2,t2,0x2
     fdc:	00073880 	sll	a3,a3,0x2
     fe0:	25290200 	addiu	t1,t1,512
     fe4:	01455021 	addu	t2,t2,a1
     fe8:	00e53821 	addu	a3,a3,a1
     fec:	00094880 	sll	t1,t1,0x2
     ff0:	25080300 	addiu	t0,t0,768
     ff4:	8d4c0000 	lw	t4,0(t2)
     ff8:	01254821 	addu	t1,t1,a1
     ffc:	8ce70000 	lw	a3,0(a3)
    1000:	00084080 	sll	t0,t0,0x2
    1004:	8d2a0000 	lw	t2,0(t1)
    1008:	01054021 	addu	t0,t0,a1
    100c:	8cc90040 	lw	t1,64(a2)
    1010:	8d080000 	lw	t0,0(t0)
    1014:	01873821 	addu	a3,t4,a3
    1018:	00ea3826 	xor	a3,a3,t2
    101c:	00491026 	xor	v0,v0,t1
    1020:	00e83821 	addu	a3,a3,t0
    1024:	00473826 	xor	a3,v0,a3
      BF_ENC (l, r, s, p[15]);
    1028:	00075402 	srl	t2,a3,0x10
    102c:	00074a02 	srl	t1,a3,0x8
    1030:	314a00ff 	andi	t2,t2,0xff
    1034:	00071602 	srl	v0,a3,0x18
    1038:	254a0100 	addiu	t2,t2,256
    103c:	312900ff 	andi	t1,t1,0xff
    1040:	30e800ff 	andi	t0,a3,0xff
    1044:	000a5080 	sll	t2,t2,0x2
    1048:	00021080 	sll	v0,v0,0x2
    104c:	25290200 	addiu	t1,t1,512
    1050:	01455021 	addu	t2,t2,a1
    1054:	00451021 	addu	v0,v0,a1
    1058:	00094880 	sll	t1,t1,0x2
    105c:	25080300 	addiu	t0,t0,768
    1060:	8d4c0000 	lw	t4,0(t2)
    1064:	8c420000 	lw	v0,0(v0)
    1068:	01254821 	addu	t1,t1,a1
    106c:	00084080 	sll	t0,t0,0x2
    1070:	8d290000 	lw	t1,0(t1)
    1074:	01054021 	addu	t0,t0,a1
    1078:	8cca003c 	lw	t2,60(a2)
    107c:	8d080000 	lw	t0,0(t0)
    1080:	01821021 	addu	v0,t4,v0
    1084:	00491026 	xor	v0,v0,t1
    1088:	00481021 	addu	v0,v0,t0
    108c:	006a1826 	xor	v1,v1,t2
    1090:	00621826 	xor	v1,v1,v0
      BF_ENC (r, l, s, p[14]);
    1094:	00034c02 	srl	t1,v1,0x10
    1098:	00031202 	srl	v0,v1,0x8
    109c:	312900ff 	andi	t1,t1,0xff
    10a0:	00034602 	srl	t0,v1,0x18
    10a4:	25290100 	addiu	t1,t1,256
    10a8:	304200ff 	andi	v0,v0,0xff
    10ac:	306a00ff 	andi	t2,v1,0xff
    10b0:	00094880 	sll	t1,t1,0x2
    10b4:	00084080 	sll	t0,t0,0x2
    10b8:	24420200 	addiu	v0,v0,512
    10bc:	01254821 	addu	t1,t1,a1
    10c0:	01054021 	addu	t0,t0,a1
    10c4:	00021080 	sll	v0,v0,0x2
    10c8:	254a0300 	addiu	t2,t2,768
    10cc:	8d2c0000 	lw	t4,0(t1)
    10d0:	00451021 	addu	v0,v0,a1
    10d4:	8d080000 	lw	t0,0(t0)
    10d8:	000a5080 	sll	t2,t2,0x2
    10dc:	8c490000 	lw	t1,0(v0)
    10e0:	01455021 	addu	t2,t2,a1
    10e4:	8cc20038 	lw	v0,56(a2)
    10e8:	8d4a0000 	lw	t2,0(t2)
    10ec:	01884021 	addu	t0,t4,t0
    10f0:	01094026 	xor	t0,t0,t1
    10f4:	010a4021 	addu	t0,t0,t2
    10f8:	00e23826 	xor	a3,a3,v0
    10fc:	00e81026 	xor	v0,a3,t0
      BF_ENC (l, r, s, p[13]);
    1100:	00025402 	srl	t2,v0,0x10
    1104:	00024202 	srl	t0,v0,0x8
    1108:	314a00ff 	andi	t2,t2,0xff
    110c:	00024e02 	srl	t1,v0,0x18
    1110:	254a0100 	addiu	t2,t2,256
    1114:	310800ff 	andi	t0,t0,0xff
    1118:	304700ff 	andi	a3,v0,0xff
    111c:	000a5080 	sll	t2,t2,0x2
    1120:	00094880 	sll	t1,t1,0x2
    1124:	25080200 	addiu	t0,t0,512
    1128:	01455021 	addu	t2,t2,a1
    112c:	01254821 	addu	t1,t1,a1
    1130:	00084080 	sll	t0,t0,0x2
    1134:	24e70300 	addiu	a3,a3,768
    1138:	8d4c0000 	lw	t4,0(t2)
    113c:	01054021 	addu	t0,t0,a1
    1140:	8d2a0000 	lw	t2,0(t1)
    1144:	00073880 	sll	a3,a3,0x2
    1148:	8d090000 	lw	t1,0(t0)
    114c:	00e53821 	addu	a3,a3,a1
    1150:	8cc80034 	lw	t0,52(a2)
    1154:	8ce70000 	lw	a3,0(a3)
    1158:	018a5021 	addu	t2,t4,t2
    115c:	01495026 	xor	t2,t2,t1
    1160:	00681826 	xor	v1,v1,t0
    1164:	01475021 	addu	t2,t2,a3
    1168:	006a5026 	xor	t2,v1,t2
      BF_ENC (r, l, s, p[12]);
    116c:	000a4c02 	srl	t1,t2,0x10
    1170:	000a3a02 	srl	a3,t2,0x8
    1174:	312900ff 	andi	t1,t1,0xff
    1178:	000a4602 	srl	t0,t2,0x18
    117c:	25290100 	addiu	t1,t1,256
    1180:	30e700ff 	andi	a3,a3,0xff
    1184:	314300ff 	andi	v1,t2,0xff
    1188:	00094880 	sll	t1,t1,0x2
    118c:	00084080 	sll	t0,t0,0x2
    1190:	24e70200 	addiu	a3,a3,512
    1194:	01254821 	addu	t1,t1,a1
    1198:	01054021 	addu	t0,t0,a1
    119c:	00073880 	sll	a3,a3,0x2
    11a0:	24630300 	addiu	v1,v1,768
    11a4:	8d2c0000 	lw	t4,0(t1)
    11a8:	00e53821 	addu	a3,a3,a1
    11ac:	8d090000 	lw	t1,0(t0)
    11b0:	00031880 	sll	v1,v1,0x2
    11b4:	8ce80000 	lw	t0,0(a3)
    11b8:	00651821 	addu	v1,v1,a1
    11bc:	8cc70030 	lw	a3,48(a2)
    11c0:	8c630000 	lw	v1,0(v1)
    11c4:	01894821 	addu	t1,t4,t1
    11c8:	01284826 	xor	t1,t1,t0
    11cc:	00471026 	xor	v0,v0,a3
    11d0:	01234821 	addu	t1,t1,v1
    11d4:	00494826 	xor	t1,v0,t1
      BF_ENC (l, r, s, p[11]);
    11d8:	00094402 	srl	t0,t1,0x10
    11dc:	00091a02 	srl	v1,t1,0x8
    11e0:	310800ff 	andi	t0,t0,0xff
    11e4:	00093e02 	srl	a3,t1,0x18
    11e8:	25080100 	addiu	t0,t0,256
    11ec:	306300ff 	andi	v1,v1,0xff
    11f0:	312200ff 	andi	v0,t1,0xff
    11f4:	00084080 	sll	t0,t0,0x2
    11f8:	00073880 	sll	a3,a3,0x2
    11fc:	24630200 	addiu	v1,v1,512
    1200:	01054021 	addu	t0,t0,a1
    1204:	00e53821 	addu	a3,a3,a1
    1208:	00031880 	sll	v1,v1,0x2
    120c:	24420300 	addiu	v0,v0,768
    1210:	8d0c0000 	lw	t4,0(t0)
    1214:	00651821 	addu	v1,v1,a1
    1218:	8ce80000 	lw	t0,0(a3)
    121c:	00021080 	sll	v0,v0,0x2
    1220:	8c670000 	lw	a3,0(v1)
    1224:	00451021 	addu	v0,v0,a1
    1228:	8cc3002c 	lw	v1,44(a2)
    122c:	8c420000 	lw	v0,0(v0)
    1230:	01884021 	addu	t0,t4,t0
    1234:	01074026 	xor	t0,t0,a3
    1238:	01435026 	xor	t2,t2,v1
    123c:	01024021 	addu	t0,t0,v0
    1240:	01484026 	xor	t0,t2,t0
      BF_ENC (r, l, s, p[10]);
    1244:	00085402 	srl	t2,t0,0x10
    1248:	00081202 	srl	v0,t0,0x8
    124c:	314a00ff 	andi	t2,t2,0xff
    1250:	00083e02 	srl	a3,t0,0x18
    1254:	254a0100 	addiu	t2,t2,256
    1258:	304200ff 	andi	v0,v0,0xff
    125c:	310300ff 	andi	v1,t0,0xff
    1260:	000a5080 	sll	t2,t2,0x2
    1264:	00073880 	sll	a3,a3,0x2
    1268:	24420200 	addiu	v0,v0,512
    126c:	01455021 	addu	t2,t2,a1
    1270:	00e53821 	addu	a3,a3,a1
    1274:	00021080 	sll	v0,v0,0x2
    1278:	24630300 	addiu	v1,v1,768
    127c:	8d4c0000 	lw	t4,0(t2)
    1280:	00451021 	addu	v0,v0,a1
    1284:	8ce70000 	lw	a3,0(a3)
    1288:	00031880 	sll	v1,v1,0x2
    128c:	8c4a0000 	lw	t2,0(v0)
    1290:	00651821 	addu	v1,v1,a1
    1294:	8cc20028 	lw	v0,40(a2)
    1298:	8c630000 	lw	v1,0(v1)
    129c:	01873821 	addu	a3,t4,a3
    12a0:	00ea3826 	xor	a3,a3,t2
    12a4:	01224826 	xor	t1,t1,v0
    12a8:	00e33821 	addu	a3,a3,v1
    12ac:	01273826 	xor	a3,t1,a3
      BF_ENC (l, r, s, p[9]);
    12b0:	00075402 	srl	t2,a3,0x10
    12b4:	00074a02 	srl	t1,a3,0x8
    12b8:	314a00ff 	andi	t2,t2,0xff
    12bc:	00071e02 	srl	v1,a3,0x18
    12c0:	254a0100 	addiu	t2,t2,256
    12c4:	312900ff 	andi	t1,t1,0xff
    12c8:	30e200ff 	andi	v0,a3,0xff
    12cc:	000a5080 	sll	t2,t2,0x2
    12d0:	00031880 	sll	v1,v1,0x2
    12d4:	25290200 	addiu	t1,t1,512
    12d8:	01455021 	addu	t2,t2,a1
    12dc:	00651821 	addu	v1,v1,a1
    12e0:	00094880 	sll	t1,t1,0x2
    12e4:	24420300 	addiu	v0,v0,768
    12e8:	8d4c0000 	lw	t4,0(t2)
    12ec:	8c630000 	lw	v1,0(v1)
    12f0:	01254821 	addu	t1,t1,a1
    12f4:	00021080 	sll	v0,v0,0x2
    12f8:	8d290000 	lw	t1,0(t1)
    12fc:	00451021 	addu	v0,v0,a1
    1300:	8cca0024 	lw	t2,36(a2)
    1304:	8c420000 	lw	v0,0(v0)
    1308:	01831821 	addu	v1,t4,v1
    130c:	00691826 	xor	v1,v1,t1
    1310:	010a4026 	xor	t0,t0,t2
    1314:	00621821 	addu	v1,v1,v0
    1318:	01031826 	xor	v1,t0,v1
      BF_ENC (r, l, s, p[8]);
    131c:	00035402 	srl	t2,v1,0x10
    1320:	00034a02 	srl	t1,v1,0x8
    1324:	314a00ff 	andi	t2,t2,0xff
    1328:	00031602 	srl	v0,v1,0x18
    132c:	254a0100 	addiu	t2,t2,256
    1330:	312900ff 	andi	t1,t1,0xff
    1334:	306800ff 	andi	t0,v1,0xff
    1338:	000a5080 	sll	t2,t2,0x2
    133c:	00021080 	sll	v0,v0,0x2
    1340:	25290200 	addiu	t1,t1,512
    1344:	01455021 	addu	t2,t2,a1
    1348:	00451021 	addu	v0,v0,a1
    134c:	00094880 	sll	t1,t1,0x2
    1350:	25080300 	addiu	t0,t0,768
    1354:	8d4c0000 	lw	t4,0(t2)
    1358:	01254821 	addu	t1,t1,a1
    135c:	8c420000 	lw	v0,0(v0)
    1360:	00084080 	sll	t0,t0,0x2
    1364:	8d2a0000 	lw	t2,0(t1)
    1368:	01054021 	addu	t0,t0,a1
    136c:	8cc90020 	lw	t1,32(a2)
    1370:	8d080000 	lw	t0,0(t0)
    1374:	01821021 	addu	v0,t4,v0
    1378:	004a1026 	xor	v0,v0,t2
    137c:	00e93826 	xor	a3,a3,t1
    1380:	00481021 	addu	v0,v0,t0
    1384:	00e21026 	xor	v0,a3,v0
      BF_ENC (l, r, s, p[7]);
    1388:	00025402 	srl	t2,v0,0x10
    138c:	00024202 	srl	t0,v0,0x8
    1390:	314a00ff 	andi	t2,t2,0xff
    1394:	00024e02 	srl	t1,v0,0x18
    1398:	254a0100 	addiu	t2,t2,256
    139c:	310800ff 	andi	t0,t0,0xff
    13a0:	304700ff 	andi	a3,v0,0xff
    13a4:	000a5080 	sll	t2,t2,0x2
    13a8:	00094880 	sll	t1,t1,0x2
    13ac:	25080200 	addiu	t0,t0,512
    13b0:	01455021 	addu	t2,t2,a1
    13b4:	01254821 	addu	t1,t1,a1
    13b8:	00084080 	sll	t0,t0,0x2
    13bc:	24e70300 	addiu	a3,a3,768
    13c0:	8d4c0000 	lw	t4,0(t2)
    13c4:	01054021 	addu	t0,t0,a1
    13c8:	8d2a0000 	lw	t2,0(t1)
    13cc:	00073880 	sll	a3,a3,0x2
    13d0:	8d090000 	lw	t1,0(t0)
    13d4:	00e53821 	addu	a3,a3,a1
    13d8:	8cc8001c 	lw	t0,28(a2)
    13dc:	8ce70000 	lw	a3,0(a3)
    13e0:	018a5021 	addu	t2,t4,t2
    13e4:	01495026 	xor	t2,t2,t1
    13e8:	00681826 	xor	v1,v1,t0
    13ec:	01475021 	addu	t2,t2,a3
    13f0:	006a5026 	xor	t2,v1,t2
      BF_ENC (r, l, s, p[6]);
    13f4:	000a4c02 	srl	t1,t2,0x10
    13f8:	000a3a02 	srl	a3,t2,0x8
    13fc:	312900ff 	andi	t1,t1,0xff
    1400:	000a4602 	srl	t0,t2,0x18
    1404:	25290100 	addiu	t1,t1,256
    1408:	30e700ff 	andi	a3,a3,0xff
    140c:	314300ff 	andi	v1,t2,0xff
    1410:	00094880 	sll	t1,t1,0x2
    1414:	00084080 	sll	t0,t0,0x2
    1418:	24e70200 	addiu	a3,a3,512
    141c:	01254821 	addu	t1,t1,a1
    1420:	01054021 	addu	t0,t0,a1
    1424:	00073880 	sll	a3,a3,0x2
    1428:	24630300 	addiu	v1,v1,768
    142c:	8d2c0000 	lw	t4,0(t1)
    1430:	00e53821 	addu	a3,a3,a1
    1434:	8d090000 	lw	t1,0(t0)
    1438:	00031880 	sll	v1,v1,0x2
    143c:	8ce80000 	lw	t0,0(a3)
    1440:	00651821 	addu	v1,v1,a1
    1444:	8cc70018 	lw	a3,24(a2)
    1448:	8c630000 	lw	v1,0(v1)
    144c:	01894821 	addu	t1,t4,t1
    1450:	01284826 	xor	t1,t1,t0
    1454:	00471026 	xor	v0,v0,a3
    1458:	01234821 	addu	t1,t1,v1
    145c:	00494826 	xor	t1,v0,t1
      BF_ENC (l, r, s, p[5]);
    1460:	00094402 	srl	t0,t1,0x10
    1464:	00091a02 	srl	v1,t1,0x8
    1468:	310800ff 	andi	t0,t0,0xff
    146c:	00093e02 	srl	a3,t1,0x18
    1470:	25080100 	addiu	t0,t0,256
    1474:	306300ff 	andi	v1,v1,0xff
    1478:	312200ff 	andi	v0,t1,0xff
    147c:	00084080 	sll	t0,t0,0x2
    1480:	00073880 	sll	a3,a3,0x2
    1484:	24630200 	addiu	v1,v1,512
    1488:	01054021 	addu	t0,t0,a1
    148c:	00e53821 	addu	a3,a3,a1
    1490:	00031880 	sll	v1,v1,0x2
    1494:	24420300 	addiu	v0,v0,768
    1498:	8d0c0000 	lw	t4,0(t0)
    149c:	00651821 	addu	v1,v1,a1
    14a0:	8ce80000 	lw	t0,0(a3)
    14a4:	00021080 	sll	v0,v0,0x2
    14a8:	8c670000 	lw	a3,0(v1)
    14ac:	00451021 	addu	v0,v0,a1
    14b0:	8cc30014 	lw	v1,20(a2)
    14b4:	8c420000 	lw	v0,0(v0)
    14b8:	01884021 	addu	t0,t4,t0
    14bc:	01074026 	xor	t0,t0,a3
    14c0:	01435026 	xor	t2,t2,v1
    14c4:	01024021 	addu	t0,t0,v0
    14c8:	01484026 	xor	t0,t2,t0
      BF_ENC (r, l, s, p[4]);
    14cc:	00085402 	srl	t2,t0,0x10
    14d0:	00081202 	srl	v0,t0,0x8
    14d4:	314a00ff 	andi	t2,t2,0xff
    14d8:	00083e02 	srl	a3,t0,0x18
    14dc:	254a0100 	addiu	t2,t2,256
    14e0:	304200ff 	andi	v0,v0,0xff
    14e4:	310300ff 	andi	v1,t0,0xff
    14e8:	000a5080 	sll	t2,t2,0x2
    14ec:	00073880 	sll	a3,a3,0x2
    14f0:	24420200 	addiu	v0,v0,512
    14f4:	01455021 	addu	t2,t2,a1
    14f8:	00e53821 	addu	a3,a3,a1
    14fc:	00021080 	sll	v0,v0,0x2
    1500:	24630300 	addiu	v1,v1,768
    1504:	8d4c0000 	lw	t4,0(t2)
    1508:	00451021 	addu	v0,v0,a1
    150c:	8ce70000 	lw	a3,0(a3)
    1510:	00031880 	sll	v1,v1,0x2
    1514:	8c4a0000 	lw	t2,0(v0)
    1518:	00651821 	addu	v1,v1,a1
    151c:	8cc20010 	lw	v0,16(a2)
    1520:	8c630000 	lw	v1,0(v1)
    1524:	01873821 	addu	a3,t4,a3
    1528:	00ea3826 	xor	a3,a3,t2
    152c:	01224826 	xor	t1,t1,v0
    1530:	00e33821 	addu	a3,a3,v1
    1534:	01273826 	xor	a3,t1,a3
      BF_ENC (l, r, s, p[3]);
    1538:	00075402 	srl	t2,a3,0x10
    153c:	00074a02 	srl	t1,a3,0x8
    1540:	314a00ff 	andi	t2,t2,0xff
    1544:	00071e02 	srl	v1,a3,0x18
    1548:	254a0100 	addiu	t2,t2,256
    154c:	312900ff 	andi	t1,t1,0xff
    1550:	30e200ff 	andi	v0,a3,0xff
    1554:	000a5080 	sll	t2,t2,0x2
    1558:	00031880 	sll	v1,v1,0x2
    155c:	25290200 	addiu	t1,t1,512
    1560:	01455021 	addu	t2,t2,a1
    1564:	00651821 	addu	v1,v1,a1
    1568:	00094880 	sll	t1,t1,0x2
    156c:	24420300 	addiu	v0,v0,768
    1570:	8d4c0000 	lw	t4,0(t2)
    1574:	01254821 	addu	t1,t1,a1
    1578:	8c630000 	lw	v1,0(v1)
    157c:	00021080 	sll	v0,v0,0x2
    1580:	8d2a0000 	lw	t2,0(t1)
    1584:	00451021 	addu	v0,v0,a1
    1588:	8cc9000c 	lw	t1,12(a2)
    158c:	8c420000 	lw	v0,0(v0)
    1590:	01831821 	addu	v1,t4,v1
    1594:	006a1826 	xor	v1,v1,t2
    1598:	01094026 	xor	t0,t0,t1
    159c:	00621821 	addu	v1,v1,v0
    15a0:	01031826 	xor	v1,t0,v1
      BF_ENC (r, l, s, p[2]);
    15a4:	00035402 	srl	t2,v1,0x10
    15a8:	00034a02 	srl	t1,v1,0x8
    15ac:	314a00ff 	andi	t2,t2,0xff
    15b0:	00031602 	srl	v0,v1,0x18
    15b4:	254a0100 	addiu	t2,t2,256
    15b8:	312900ff 	andi	t1,t1,0xff
    15bc:	306800ff 	andi	t0,v1,0xff
    15c0:	000a5080 	sll	t2,t2,0x2
    15c4:	00021080 	sll	v0,v0,0x2
    15c8:	25290200 	addiu	t1,t1,512
    15cc:	01455021 	addu	t2,t2,a1
    15d0:	00451021 	addu	v0,v0,a1
    15d4:	00094880 	sll	t1,t1,0x2
    15d8:	25080300 	addiu	t0,t0,768
    15dc:	8d4c0000 	lw	t4,0(t2)
    15e0:	01254821 	addu	t1,t1,a1
    15e4:	8c420000 	lw	v0,0(v0)
    15e8:	00084080 	sll	t0,t0,0x2
    15ec:	8d2a0000 	lw	t2,0(t1)
    15f0:	01054021 	addu	t0,t0,a1
    15f4:	8cc90008 	lw	t1,8(a2)
    15f8:	8d080000 	lw	t0,0(t0)
    15fc:	01821021 	addu	v0,t4,v0
    1600:	004a1026 	xor	v0,v0,t2
    1604:	00e93826 	xor	a3,a3,t1
    1608:	00481021 	addu	v0,v0,t0
    160c:	00e21026 	xor	v0,a3,v0
      BF_ENC (l, r, s, p[1]);
    1610:	00025402 	srl	t2,v0,0x10
    1614:	00024a02 	srl	t1,v0,0x8
    1618:	314a00ff 	andi	t2,t2,0xff
    161c:	00023e02 	srl	a3,v0,0x18
    1620:	254a0100 	addiu	t2,t2,256
    1624:	312900ff 	andi	t1,t1,0xff
    1628:	304800ff 	andi	t0,v0,0xff
    162c:	000a5080 	sll	t2,t2,0x2
    1630:	00073880 	sll	a3,a3,0x2
    1634:	25290200 	addiu	t1,t1,512
    1638:	01455021 	addu	t2,t2,a1
    163c:	00e53821 	addu	a3,a3,a1
    1640:	00094880 	sll	t1,t1,0x2
    1644:	25080300 	addiu	t0,t0,768
    1648:	8d4a0000 	lw	t2,0(t2)
    164c:	8ce70000 	lw	a3,0(a3)
    1650:	01254821 	addu	t1,t1,a1
    1654:	00084080 	sll	t0,t0,0x2
    1658:	01052821 	addu	a1,t0,a1
    165c:	8d290000 	lw	t1,0(t1)
    1660:	8cc80004 	lw	t0,4(a2)
    1664:	01473821 	addu	a3,t2,a3
    1668:	8ca60000 	lw	a2,0(a1)
    166c:	00e93826 	xor	a3,a3,t1
      r ^= p[0];
    1670:	8d650000 	lw	a1,0(t3)
      BF_ENC (r, l, s, p[6]);
      BF_ENC (l, r, s, p[5]);
      BF_ENC (r, l, s, p[4]);
      BF_ENC (l, r, s, p[3]);
      BF_ENC (r, l, s, p[2]);
      BF_ENC (l, r, s, p[1]);
    1674:	00681826 	xor	v1,v1,t0
    1678:	00e63821 	addu	a3,a3,a2
    167c:	00671826 	xor	v1,v1,a3
      r ^= p[0];
    1680:	00451026 	xor	v0,v0,a1
    }
  data[1] = l & 0xffffffff;
    1684:	ac830004 	sw	v1,4(a0)
  data[0] = r & 0xffffffff;
}
    1688:	03e00008 	jr	ra
    168c:	ac820000 	sw	v0,0(a0)
  l = data[0];
  r = data[1];

  if (encrypt)
    {
      l ^= p[0];
    1690:	3c060000 	lui	a2,0x0
    1694:	8cca0000 	lw	t2,0(a2)

      BF_ENC (r, l, s, p[1]);
    1698:	3c050000 	lui	a1,0x0
  l = data[0];
  r = data[1];

  if (encrypt)
    {
      l ^= p[0];
    169c:	006a1826 	xor	v1,v1,t2

      BF_ENC (r, l, s, p[1]);
    16a0:	00035402 	srl	t2,v1,0x10
    16a4:	00034a02 	srl	t1,v1,0x8
    16a8:	314a00ff 	andi	t2,t2,0xff
    16ac:	00033e02 	srl	a3,v1,0x18
    16b0:	254a0100 	addiu	t2,t2,256
    16b4:	312900ff 	andi	t1,t1,0xff
    16b8:	24a50000 	addiu	a1,a1,0
    16bc:	306800ff 	andi	t0,v1,0xff
    16c0:	000a5080 	sll	t2,t2,0x2
    16c4:	00073880 	sll	a3,a3,0x2
    16c8:	25290200 	addiu	t1,t1,512
    16cc:	01455021 	addu	t2,t2,a1
    16d0:	00e53821 	addu	a3,a3,a1
    16d4:	00094880 	sll	t1,t1,0x2
    16d8:	25080300 	addiu	t0,t0,768
    16dc:	8d4b0000 	lw	t3,0(t2)
    16e0:	01254821 	addu	t1,t1,a1
    16e4:	8ce70000 	lw	a3,0(a3)
    16e8:	00084080 	sll	t0,t0,0x2
    16ec:	24c60000 	addiu	a2,a2,0
    16f0:	8d2a0000 	lw	t2,0(t1)
    16f4:	01054021 	addu	t0,t0,a1
    16f8:	8cc90004 	lw	t1,4(a2)
    16fc:	8d080000 	lw	t0,0(t0)
    1700:	01673821 	addu	a3,t3,a3
    1704:	00ea3826 	xor	a3,a3,t2
    1708:	00491026 	xor	v0,v0,t1
    170c:	00e83821 	addu	a3,a3,t0
    1710:	00473826 	xor	a3,v0,a3
      BF_ENC (l, r, s, p[2]);
    1714:	00075402 	srl	t2,a3,0x10
    1718:	00074a02 	srl	t1,a3,0x8
    171c:	314a00ff 	andi	t2,t2,0xff
    1720:	00071602 	srl	v0,a3,0x18
    1724:	254a0100 	addiu	t2,t2,256
    1728:	312900ff 	andi	t1,t1,0xff
    172c:	30e800ff 	andi	t0,a3,0xff
    1730:	000a5080 	sll	t2,t2,0x2
    1734:	00021080 	sll	v0,v0,0x2
    1738:	25290200 	addiu	t1,t1,512
    173c:	01455021 	addu	t2,t2,a1
    1740:	00451021 	addu	v0,v0,a1
    1744:	00094880 	sll	t1,t1,0x2
    1748:	25080300 	addiu	t0,t0,768
    174c:	8d4b0000 	lw	t3,0(t2)
    1750:	8c420000 	lw	v0,0(v0)
    1754:	01254821 	addu	t1,t1,a1
    1758:	00084080 	sll	t0,t0,0x2
    175c:	8d290000 	lw	t1,0(t1)
    1760:	01054021 	addu	t0,t0,a1
    1764:	8cca0008 	lw	t2,8(a2)
    1768:	8d080000 	lw	t0,0(t0)
    176c:	01621021 	addu	v0,t3,v0
    1770:	00491026 	xor	v0,v0,t1
    1774:	00481021 	addu	v0,v0,t0
    1778:	006a1826 	xor	v1,v1,t2
    177c:	00621826 	xor	v1,v1,v0
      BF_ENC (r, l, s, p[3]);
    1780:	00034c02 	srl	t1,v1,0x10
    1784:	00031202 	srl	v0,v1,0x8
    1788:	312900ff 	andi	t1,t1,0xff
    178c:	00034602 	srl	t0,v1,0x18
    1790:	25290100 	addiu	t1,t1,256
    1794:	304200ff 	andi	v0,v0,0xff
    1798:	306a00ff 	andi	t2,v1,0xff
    179c:	00094880 	sll	t1,t1,0x2
    17a0:	00084080 	sll	t0,t0,0x2
    17a4:	24420200 	addiu	v0,v0,512
    17a8:	01254821 	addu	t1,t1,a1
    17ac:	01054021 	addu	t0,t0,a1
    17b0:	00021080 	sll	v0,v0,0x2
    17b4:	254a0300 	addiu	t2,t2,768
    17b8:	8d2b0000 	lw	t3,0(t1)
    17bc:	00451021 	addu	v0,v0,a1
    17c0:	8d080000 	lw	t0,0(t0)
    17c4:	000a5080 	sll	t2,t2,0x2
    17c8:	8c490000 	lw	t1,0(v0)
    17cc:	01455021 	addu	t2,t2,a1
    17d0:	8cc2000c 	lw	v0,12(a2)
    17d4:	8d4a0000 	lw	t2,0(t2)
    17d8:	01684021 	addu	t0,t3,t0
    17dc:	01094026 	xor	t0,t0,t1
    17e0:	010a4021 	addu	t0,t0,t2
    17e4:	00e23826 	xor	a3,a3,v0
    17e8:	00e81026 	xor	v0,a3,t0
      BF_ENC (l, r, s, p[4]);
    17ec:	00025402 	srl	t2,v0,0x10
    17f0:	00024202 	srl	t0,v0,0x8
    17f4:	314a00ff 	andi	t2,t2,0xff
    17f8:	00024e02 	srl	t1,v0,0x18
    17fc:	254a0100 	addiu	t2,t2,256
    1800:	310800ff 	andi	t0,t0,0xff
    1804:	304700ff 	andi	a3,v0,0xff
    1808:	000a5080 	sll	t2,t2,0x2
    180c:	00094880 	sll	t1,t1,0x2
    1810:	25080200 	addiu	t0,t0,512
    1814:	01455021 	addu	t2,t2,a1
    1818:	01254821 	addu	t1,t1,a1
    181c:	00084080 	sll	t0,t0,0x2
    1820:	24e70300 	addiu	a3,a3,768
    1824:	8d4b0000 	lw	t3,0(t2)
    1828:	01054021 	addu	t0,t0,a1
    182c:	8d2a0000 	lw	t2,0(t1)
    1830:	00073880 	sll	a3,a3,0x2
    1834:	8d090000 	lw	t1,0(t0)
    1838:	00e53821 	addu	a3,a3,a1
    183c:	8cc80010 	lw	t0,16(a2)
    1840:	8ce70000 	lw	a3,0(a3)
    1844:	016a5021 	addu	t2,t3,t2
    1848:	01495026 	xor	t2,t2,t1
    184c:	00681826 	xor	v1,v1,t0
    1850:	01475021 	addu	t2,t2,a3
    1854:	006a5026 	xor	t2,v1,t2
      BF_ENC (r, l, s, p[5]);
    1858:	000a4c02 	srl	t1,t2,0x10
    185c:	000a3a02 	srl	a3,t2,0x8
    1860:	312900ff 	andi	t1,t1,0xff
    1864:	000a4602 	srl	t0,t2,0x18
    1868:	25290100 	addiu	t1,t1,256
    186c:	30e700ff 	andi	a3,a3,0xff
    1870:	314300ff 	andi	v1,t2,0xff
    1874:	00094880 	sll	t1,t1,0x2
    1878:	00084080 	sll	t0,t0,0x2
    187c:	24e70200 	addiu	a3,a3,512
    1880:	01254821 	addu	t1,t1,a1
    1884:	01054021 	addu	t0,t0,a1
    1888:	00073880 	sll	a3,a3,0x2
    188c:	24630300 	addiu	v1,v1,768
    1890:	8d2b0000 	lw	t3,0(t1)
    1894:	00e53821 	addu	a3,a3,a1
    1898:	8d090000 	lw	t1,0(t0)
    189c:	00031880 	sll	v1,v1,0x2
    18a0:	8ce70000 	lw	a3,0(a3)
    18a4:	00651821 	addu	v1,v1,a1
    18a8:	8cc80014 	lw	t0,20(a2)
    18ac:	8c630000 	lw	v1,0(v1)
    18b0:	01694821 	addu	t1,t3,t1
    18b4:	01274826 	xor	t1,t1,a3
    18b8:	00481026 	xor	v0,v0,t0
    18bc:	01234821 	addu	t1,t1,v1
    18c0:	00494826 	xor	t1,v0,t1
      BF_ENC (l, r, s, p[6]);
    18c4:	00094402 	srl	t0,t1,0x10
    18c8:	00093a02 	srl	a3,t1,0x8
    18cc:	310800ff 	andi	t0,t0,0xff
    18d0:	00091e02 	srl	v1,t1,0x18
    18d4:	25080100 	addiu	t0,t0,256
    18d8:	30e700ff 	andi	a3,a3,0xff
    18dc:	312200ff 	andi	v0,t1,0xff
    18e0:	00084080 	sll	t0,t0,0x2
    18e4:	00031880 	sll	v1,v1,0x2
    18e8:	24e70200 	addiu	a3,a3,512
    18ec:	01054021 	addu	t0,t0,a1
    18f0:	00651821 	addu	v1,v1,a1
    18f4:	00073880 	sll	a3,a3,0x2
    18f8:	24420300 	addiu	v0,v0,768
    18fc:	8d0b0000 	lw	t3,0(t0)
    1900:	00e53821 	addu	a3,a3,a1
    1904:	8c630000 	lw	v1,0(v1)
    1908:	00021080 	sll	v0,v0,0x2
    190c:	8ce80000 	lw	t0,0(a3)
    1910:	00451021 	addu	v0,v0,a1
    1914:	8cc70018 	lw	a3,24(a2)
    1918:	8c420000 	lw	v0,0(v0)
    191c:	01631821 	addu	v1,t3,v1
    1920:	00681826 	xor	v1,v1,t0
    1924:	01475026 	xor	t2,t2,a3
    1928:	00621821 	addu	v1,v1,v0
    192c:	01431826 	xor	v1,t2,v1
      BF_ENC (r, l, s, p[7]);
    1930:	00035402 	srl	t2,v1,0x10
    1934:	00031202 	srl	v0,v1,0x8
    1938:	314a00ff 	andi	t2,t2,0xff
    193c:	00034602 	srl	t0,v1,0x18
    1940:	254a0100 	addiu	t2,t2,256
    1944:	304200ff 	andi	v0,v0,0xff
    1948:	306700ff 	andi	a3,v1,0xff
    194c:	000a5080 	sll	t2,t2,0x2
    1950:	00084080 	sll	t0,t0,0x2
    1954:	24420200 	addiu	v0,v0,512
    1958:	01455021 	addu	t2,t2,a1
    195c:	01054021 	addu	t0,t0,a1
    1960:	00021080 	sll	v0,v0,0x2
    1964:	24e70300 	addiu	a3,a3,768
    1968:	8d4b0000 	lw	t3,0(t2)
    196c:	00451021 	addu	v0,v0,a1
    1970:	8d080000 	lw	t0,0(t0)
    1974:	00073880 	sll	a3,a3,0x2
    1978:	8c4a0000 	lw	t2,0(v0)
    197c:	00e53821 	addu	a3,a3,a1
    1980:	8cc2001c 	lw	v0,28(a2)
    1984:	8ce70000 	lw	a3,0(a3)
    1988:	01684021 	addu	t0,t3,t0
    198c:	010a4026 	xor	t0,t0,t2
    1990:	01224826 	xor	t1,t1,v0
    1994:	01074021 	addu	t0,t0,a3
    1998:	01284026 	xor	t0,t1,t0
      BF_ENC (l, r, s, p[8]);
    199c:	00085402 	srl	t2,t0,0x10
    19a0:	00084a02 	srl	t1,t0,0x8
    19a4:	314a00ff 	andi	t2,t2,0xff
    19a8:	00083e02 	srl	a3,t0,0x18
    19ac:	254a0100 	addiu	t2,t2,256
    19b0:	312900ff 	andi	t1,t1,0xff
    19b4:	310200ff 	andi	v0,t0,0xff
    19b8:	000a5080 	sll	t2,t2,0x2
    19bc:	00073880 	sll	a3,a3,0x2
    19c0:	25290200 	addiu	t1,t1,512
    19c4:	01455021 	addu	t2,t2,a1
    19c8:	00e53821 	addu	a3,a3,a1
    19cc:	00094880 	sll	t1,t1,0x2
    19d0:	24420300 	addiu	v0,v0,768
    19d4:	8d4b0000 	lw	t3,0(t2)
    19d8:	8ce70000 	lw	a3,0(a3)
    19dc:	01254821 	addu	t1,t1,a1
    19e0:	00021080 	sll	v0,v0,0x2
    19e4:	8d290000 	lw	t1,0(t1)
    19e8:	00451021 	addu	v0,v0,a1
    19ec:	8cca0020 	lw	t2,32(a2)
    19f0:	8c420000 	lw	v0,0(v0)
    19f4:	01673821 	addu	a3,t3,a3
    19f8:	00e93826 	xor	a3,a3,t1
    19fc:	006a1826 	xor	v1,v1,t2
    1a00:	00e23821 	addu	a3,a3,v0
    1a04:	00673826 	xor	a3,v1,a3
      BF_ENC (r, l, s, p[9]);
    1a08:	00075402 	srl	t2,a3,0x10
    1a0c:	00074a02 	srl	t1,a3,0x8
    1a10:	314a00ff 	andi	t2,t2,0xff
    1a14:	00071602 	srl	v0,a3,0x18
    1a18:	254a0100 	addiu	t2,t2,256
    1a1c:	312900ff 	andi	t1,t1,0xff
    1a20:	30e300ff 	andi	v1,a3,0xff
    1a24:	000a5080 	sll	t2,t2,0x2
    1a28:	00021080 	sll	v0,v0,0x2
    1a2c:	25290200 	addiu	t1,t1,512
    1a30:	01455021 	addu	t2,t2,a1
    1a34:	00451021 	addu	v0,v0,a1
    1a38:	00094880 	sll	t1,t1,0x2
    1a3c:	24630300 	addiu	v1,v1,768
    1a40:	8d4b0000 	lw	t3,0(t2)
    1a44:	01254821 	addu	t1,t1,a1
    1a48:	8c420000 	lw	v0,0(v0)
    1a4c:	00031880 	sll	v1,v1,0x2
    1a50:	8d2a0000 	lw	t2,0(t1)
    1a54:	00651821 	addu	v1,v1,a1
    1a58:	8cc90024 	lw	t1,36(a2)
    1a5c:	8c630000 	lw	v1,0(v1)
    1a60:	01621021 	addu	v0,t3,v0
    1a64:	004a1026 	xor	v0,v0,t2
    1a68:	01094026 	xor	t0,t0,t1
    1a6c:	00431021 	addu	v0,v0,v1
    1a70:	01021026 	xor	v0,t0,v0
      BF_ENC (l, r, s, p[10]);
    1a74:	00025402 	srl	t2,v0,0x10
    1a78:	00021a02 	srl	v1,v0,0x8
    1a7c:	314a00ff 	andi	t2,t2,0xff
    1a80:	00024e02 	srl	t1,v0,0x18
    1a84:	254a0100 	addiu	t2,t2,256
    1a88:	306300ff 	andi	v1,v1,0xff
    1a8c:	304800ff 	andi	t0,v0,0xff
    1a90:	000a5080 	sll	t2,t2,0x2
    1a94:	00094880 	sll	t1,t1,0x2
    1a98:	24630200 	addiu	v1,v1,512
    1a9c:	01455021 	addu	t2,t2,a1
    1aa0:	01254821 	addu	t1,t1,a1
    1aa4:	00031880 	sll	v1,v1,0x2
    1aa8:	25080300 	addiu	t0,t0,768
    1aac:	8d4b0000 	lw	t3,0(t2)
    1ab0:	00651821 	addu	v1,v1,a1
    1ab4:	8d2a0000 	lw	t2,0(t1)
    1ab8:	00084080 	sll	t0,t0,0x2
    1abc:	8c690000 	lw	t1,0(v1)
    1ac0:	01054021 	addu	t0,t0,a1
    1ac4:	8cc30028 	lw	v1,40(a2)
    1ac8:	8d080000 	lw	t0,0(t0)
    1acc:	016a5021 	addu	t2,t3,t2
    1ad0:	01495026 	xor	t2,t2,t1
    1ad4:	00e33826 	xor	a3,a3,v1
    1ad8:	01485021 	addu	t2,t2,t0
    1adc:	00ea5026 	xor	t2,a3,t2
      BF_ENC (r, l, s, p[11]);
    1ae0:	000a4c02 	srl	t1,t2,0x10
    1ae4:	000a3a02 	srl	a3,t2,0x8
    1ae8:	312900ff 	andi	t1,t1,0xff
    1aec:	000a4602 	srl	t0,t2,0x18
    1af0:	25290100 	addiu	t1,t1,256
    1af4:	30e700ff 	andi	a3,a3,0xff
    1af8:	314300ff 	andi	v1,t2,0xff
    1afc:	00094880 	sll	t1,t1,0x2
    1b00:	00084080 	sll	t0,t0,0x2
    1b04:	24e70200 	addiu	a3,a3,512
    1b08:	01254821 	addu	t1,t1,a1
    1b0c:	01054021 	addu	t0,t0,a1
    1b10:	00073880 	sll	a3,a3,0x2
    1b14:	24630300 	addiu	v1,v1,768
    1b18:	8d2b0000 	lw	t3,0(t1)
    1b1c:	00e53821 	addu	a3,a3,a1
    1b20:	8d090000 	lw	t1,0(t0)
    1b24:	00031880 	sll	v1,v1,0x2
    1b28:	8ce70000 	lw	a3,0(a3)
    1b2c:	00651821 	addu	v1,v1,a1
    1b30:	8cc8002c 	lw	t0,44(a2)
    1b34:	8c630000 	lw	v1,0(v1)
    1b38:	01694821 	addu	t1,t3,t1
    1b3c:	01274826 	xor	t1,t1,a3
    1b40:	00481026 	xor	v0,v0,t0
    1b44:	01234821 	addu	t1,t1,v1
    1b48:	00494826 	xor	t1,v0,t1
      BF_ENC (l, r, s, p[12]);
    1b4c:	00094402 	srl	t0,t1,0x10
    1b50:	00093a02 	srl	a3,t1,0x8
    1b54:	310800ff 	andi	t0,t0,0xff
    1b58:	00091e02 	srl	v1,t1,0x18
    1b5c:	25080100 	addiu	t0,t0,256
    1b60:	30e700ff 	andi	a3,a3,0xff
    1b64:	312200ff 	andi	v0,t1,0xff
    1b68:	00084080 	sll	t0,t0,0x2
    1b6c:	00031880 	sll	v1,v1,0x2
    1b70:	24e70200 	addiu	a3,a3,512
    1b74:	01054021 	addu	t0,t0,a1
    1b78:	00651821 	addu	v1,v1,a1
    1b7c:	00073880 	sll	a3,a3,0x2
    1b80:	24420300 	addiu	v0,v0,768
    1b84:	8d0b0000 	lw	t3,0(t0)
    1b88:	00e53821 	addu	a3,a3,a1
    1b8c:	8c630000 	lw	v1,0(v1)
    1b90:	00021080 	sll	v0,v0,0x2
    1b94:	8ce80000 	lw	t0,0(a3)
    1b98:	00451021 	addu	v0,v0,a1
    1b9c:	8cc70030 	lw	a3,48(a2)
    1ba0:	8c420000 	lw	v0,0(v0)
    1ba4:	01631821 	addu	v1,t3,v1
    1ba8:	00681826 	xor	v1,v1,t0
    1bac:	01475026 	xor	t2,t2,a3
    1bb0:	00621821 	addu	v1,v1,v0
    1bb4:	01431826 	xor	v1,t2,v1
      BF_ENC (r, l, s, p[13]);
    1bb8:	00035402 	srl	t2,v1,0x10
    1bbc:	00031202 	srl	v0,v1,0x8
    1bc0:	314a00ff 	andi	t2,t2,0xff
    1bc4:	00034602 	srl	t0,v1,0x18
    1bc8:	254a0100 	addiu	t2,t2,256
    1bcc:	304200ff 	andi	v0,v0,0xff
    1bd0:	306700ff 	andi	a3,v1,0xff
    1bd4:	000a5080 	sll	t2,t2,0x2
    1bd8:	00084080 	sll	t0,t0,0x2
    1bdc:	24420200 	addiu	v0,v0,512
    1be0:	01455021 	addu	t2,t2,a1
    1be4:	01054021 	addu	t0,t0,a1
    1be8:	00021080 	sll	v0,v0,0x2
    1bec:	24e70300 	addiu	a3,a3,768
    1bf0:	8d4b0000 	lw	t3,0(t2)
    1bf4:	00451021 	addu	v0,v0,a1
    1bf8:	8d080000 	lw	t0,0(t0)
    1bfc:	00073880 	sll	a3,a3,0x2
    1c00:	8c4a0000 	lw	t2,0(v0)
    1c04:	00e53821 	addu	a3,a3,a1
    1c08:	8cc20034 	lw	v0,52(a2)
    1c0c:	8ce70000 	lw	a3,0(a3)
    1c10:	01684021 	addu	t0,t3,t0
    1c14:	010a4026 	xor	t0,t0,t2
    1c18:	01224826 	xor	t1,t1,v0
    1c1c:	01074021 	addu	t0,t0,a3
    1c20:	01284026 	xor	t0,t1,t0
      BF_ENC (l, r, s, p[14]);
    1c24:	00085402 	srl	t2,t0,0x10
    1c28:	00084a02 	srl	t1,t0,0x8
    1c2c:	314a00ff 	andi	t2,t2,0xff
    1c30:	00083e02 	srl	a3,t0,0x18
    1c34:	254a0100 	addiu	t2,t2,256
    1c38:	312900ff 	andi	t1,t1,0xff
    1c3c:	310200ff 	andi	v0,t0,0xff
    1c40:	000a5080 	sll	t2,t2,0x2
    1c44:	00073880 	sll	a3,a3,0x2
    1c48:	25290200 	addiu	t1,t1,512
    1c4c:	01455021 	addu	t2,t2,a1
    1c50:	00e53821 	addu	a3,a3,a1
    1c54:	00094880 	sll	t1,t1,0x2
    1c58:	24420300 	addiu	v0,v0,768
    1c5c:	8d4b0000 	lw	t3,0(t2)
    1c60:	01254821 	addu	t1,t1,a1
    1c64:	8ce70000 	lw	a3,0(a3)
    1c68:	00021080 	sll	v0,v0,0x2
    1c6c:	8d2a0000 	lw	t2,0(t1)
    1c70:	00451021 	addu	v0,v0,a1
    1c74:	8cc90038 	lw	t1,56(a2)
    1c78:	8c420000 	lw	v0,0(v0)
    1c7c:	01673821 	addu	a3,t3,a3
    1c80:	00ea3826 	xor	a3,a3,t2
    1c84:	00691826 	xor	v1,v1,t1
    1c88:	00e23821 	addu	a3,a3,v0
    1c8c:	00673826 	xor	a3,v1,a3
      BF_ENC (r, l, s, p[15]);
    1c90:	00075402 	srl	t2,a3,0x10
    1c94:	00074a02 	srl	t1,a3,0x8
    1c98:	314a00ff 	andi	t2,t2,0xff
    1c9c:	00071602 	srl	v0,a3,0x18
    1ca0:	254a0100 	addiu	t2,t2,256
    1ca4:	312900ff 	andi	t1,t1,0xff
    1ca8:	30e300ff 	andi	v1,a3,0xff
    1cac:	000a5080 	sll	t2,t2,0x2
    1cb0:	00021080 	sll	v0,v0,0x2
    1cb4:	25290200 	addiu	t1,t1,512
    1cb8:	01455021 	addu	t2,t2,a1
    1cbc:	00451021 	addu	v0,v0,a1
    1cc0:	00094880 	sll	t1,t1,0x2
    1cc4:	24630300 	addiu	v1,v1,768
    1cc8:	8d4b0000 	lw	t3,0(t2)
    1ccc:	01254821 	addu	t1,t1,a1
    1cd0:	8c420000 	lw	v0,0(v0)
    1cd4:	00031880 	sll	v1,v1,0x2
    1cd8:	8d2a0000 	lw	t2,0(t1)
    1cdc:	00651821 	addu	v1,v1,a1
    1ce0:	8cc9003c 	lw	t1,60(a2)
    1ce4:	8c630000 	lw	v1,0(v1)
    1ce8:	01621021 	addu	v0,t3,v0
    1cec:	004a1026 	xor	v0,v0,t2
    1cf0:	01094026 	xor	t0,t0,t1
    1cf4:	00431021 	addu	v0,v0,v1
    1cf8:	01021026 	xor	v0,t0,v0
      BF_ENC (l, r, s, p[16]);
    1cfc:	00024402 	srl	t0,v0,0x10
    1d00:	00025202 	srl	t2,v0,0x8
    1d04:	310800ff 	andi	t0,t0,0xff
    1d08:	00021e02 	srl	v1,v0,0x18
    1d0c:	25080100 	addiu	t0,t0,256
    1d10:	314a00ff 	andi	t2,t2,0xff
    1d14:	304900ff 	andi	t1,v0,0xff
    1d18:	00084080 	sll	t0,t0,0x2
    1d1c:	00031880 	sll	v1,v1,0x2
    1d20:	254a0200 	addiu	t2,t2,512
    1d24:	01054021 	addu	t0,t0,a1
    1d28:	00651821 	addu	v1,v1,a1
    1d2c:	000a5080 	sll	t2,t2,0x2
    1d30:	25290300 	addiu	t1,t1,768
    1d34:	8d080000 	lw	t0,0(t0)
    1d38:	8c630000 	lw	v1,0(v1)
    1d3c:	01455021 	addu	t2,t2,a1
    1d40:	00094880 	sll	t1,t1,0x2
    1d44:	01252821 	addu	a1,t1,a1
    1d48:	8d4a0000 	lw	t2,0(t2)
    1d4c:	8cc90040 	lw	t1,64(a2)
    1d50:	01031821 	addu	v1,t0,v1
    1d54:	8ca80000 	lw	t0,0(a1)
    1d58:	006a1826 	xor	v1,v1,t2
      r ^= p[BF_ROUNDS + 1];
    1d5c:	8cc50044 	lw	a1,68(a2)
      BF_ENC (r, l, s, p[11]);
      BF_ENC (l, r, s, p[12]);
      BF_ENC (r, l, s, p[13]);
      BF_ENC (l, r, s, p[14]);
      BF_ENC (r, l, s, p[15]);
      BF_ENC (l, r, s, p[16]);
    1d60:	00e93826 	xor	a3,a3,t1
    1d64:	00681821 	addu	v1,v1,t0
    1d68:	00e31826 	xor	v1,a3,v1
      r ^= p[BF_ROUNDS + 1];
    1d6c:	00451026 	xor	v0,v0,a1
      BF_ENC (l, r, s, p[3]);
      BF_ENC (r, l, s, p[2]);
      BF_ENC (l, r, s, p[1]);
      r ^= p[0];
    }
  data[1] = l & 0xffffffff;
    1d70:	ac830004 	sw	v1,4(a0)
  data[0] = r & 0xffffffff;
}
    1d74:	03e00008 	jr	ra
    1d78:	ac820000 	sw	v0,0(a0)

00001d7c <blowfish_main>:

#define N 40

int
blowfish_main ()
{
    1d7c:	27bdff58 	addiu	sp,sp,-168
  int num;
  int i, j, k, l;
  int encordec;
  int check;

  num = 0;
    1d80:	27a2001c 	addiu	v0,sp,28

#define N 40

int
blowfish_main ()
{
    1d84:	afbe00a0 	sw	s8,160(sp)
    1d88:	afb7009c 	sw	s7,156(sp)
    1d8c:	afb60098 	sw	s6,152(sp)
    1d90:	afb50094 	sw	s5,148(sp)
    1d94:	afb40090 	sw	s4,144(sp)
    1d98:	afb20088 	sw	s2,136(sp)
    1d9c:	afb00080 	sw	s0,128(sp)
    1da0:	afbf00a4 	sw	ra,164(sp)
    1da4:	afb3008c 	sw	s3,140(sp)
    1da8:	afb10084 	sw	s1,132(sp)
  int num;
  int i, j, k, l;
  int encordec;
  int check;

  num = 0;
    1dac:	afa00018 	sw	zero,24(sp)
  l = 0;
  encordec = 1;
  check = 0;
  for (i = 0; i < 8; i++)
    {
      ukey[i] = 0;
    1db0:	afa0001c 	sw	zero,28(sp)
      ivec[i] = 0;
    1db4:	afa00024 	sw	zero,36(sp)
    }
  BF_set_key (8, ukey);
    1db8:	00402021 	addu	a0,v0,zero
  l = 0;
  encordec = 1;
  check = 0;
  for (i = 0; i < 8; i++)
    {
      ukey[i] = 0;
    1dbc:	ac400004 	sw	zero,4(v0)
    1dc0:	3c150000 	lui	s5,0x0
      ivec[i] = 0;
    1dc4:	afa00028 	sw	zero,40(sp)
    }
  BF_set_key (8, ukey);
    1dc8:	0c000218 	jal	860 <BF_set_key.clone.2>
    1dcc:	00008021 	addu	s0,zero,zero
  int encordec;
  int check;

  num = 0;
  k = 0;
  l = 0;
    1dd0:	0000f021 	addu	s8,zero,zero
  int i, j, k, l;
  int encordec;
  int check;

  num = 0;
  k = 0;
    1dd4:	00009021 	addu	s2,zero,zero
    1dd8:	27b4002c 	addiu	s4,sp,44
    1ddc:	26b50000 	addiu	s5,s5,0
    1de0:	27b70054 	addiu	s7,sp,84
    }
  BF_set_key (8, ukey);
  i = 0;
  while (k < KEYSIZE)
    {
      while (k < KEYSIZE && i < N)
    1de4:	24160028 	addiu	s6,zero,40
  int i, j, k, l;
  int encordec;
  int check;

  num = 0;
  k = 0;
    1de8:	0800077e 	j	1df8 <blowfish_main+0x7c>
    1dec:	00008821 	addu	s1,zero,zero
    }
  BF_set_key (8, ukey);
  i = 0;
  while (k < KEYSIZE)
    {
      while (k < KEYSIZE && i < N)
    1df0:	1236000a 	beq	s1,s6,1e1c <blowfish_main+0xa0>
    1df4:	27a20018 	addiu	v0,sp,24
};

#define N 40

int
blowfish_main ()
    1df8:	02b21021 	addu	v0,s5,s2
  BF_set_key (8, ukey);
  i = 0;
  while (k < KEYSIZE)
    {
      while (k < KEYSIZE && i < N)
	indata[i++] = in_key[k++];
    1dfc:	90430000 	lbu	v1,0(v0)
    1e00:	26520001 	addiu	s2,s2,1
};

#define N 40

int
blowfish_main ()
    1e04:	02911021 	addu	v0,s4,s1
    }
  BF_set_key (8, ukey);
  i = 0;
  while (k < KEYSIZE)
    {
      while (k < KEYSIZE && i < N)
    1e08:	2a531450 	slti	s3,s2,5200
	indata[i++] = in_key[k++];
    1e0c:	a0430000 	sb	v1,0(v0)
    }
  BF_set_key (8, ukey);
  i = 0;
  while (k < KEYSIZE)
    {
      while (k < KEYSIZE && i < N)
    1e10:	1660fff7 	bnez	s3,1df0 <blowfish_main+0x74>
    1e14:	26310001 	addiu	s1,s1,1
	indata[i++] = in_key[k++];

      BF_cfb64_encrypt (indata, outdata, i, ivec, &num, encordec);
    1e18:	27a20018 	addiu	v0,sp,24
    1e1c:	02802021 	addu	a0,s4,zero
    1e20:	02203021 	addu	a2,s1,zero
    1e24:	02e02821 	addu	a1,s7,zero
    1e28:	27a70024 	addiu	a3,sp,36
    1e2c:	0c0001bd 	jal	6f4 <BF_cfb64_encrypt.clone.1>
    1e30:	afa20010 	sw	v0,16(sp)
};

#define N 40

int
blowfish_main ()
    1e34:	3c040000 	lui	a0,0x0
    1e38:	24840000 	addiu	a0,a0,0
  while (k < KEYSIZE)
    {
      while (k < KEYSIZE && i < N)
	indata[i++] = in_key[k++];

      BF_cfb64_encrypt (indata, outdata, i, ivec, &num, encordec);
    1e3c:	02e01021 	addu	v0,s7,zero
};

#define N 40

int
blowfish_main ()
    1e40:	009e1821 	addu	v1,a0,s8
    1e44:	02f13021 	addu	a2,s7,s1
	indata[i++] = in_key[k++];

      BF_cfb64_encrypt (indata, outdata, i, ivec, &num, encordec);

      for (j = 0; j < i; j++)
	check += (outdata[j] != out_key[l++]);
    1e48:	90450000 	lbu	a1,0(v0)
    1e4c:	90640000 	lbu	a0,0(v1)
    1e50:	24420001 	addiu	v0,v0,1
    1e54:	00a42026 	xor	a0,a1,a0
    1e58:	0004202b 	sltu	a0,zero,a0
    1e5c:	02048021 	addu	s0,s0,a0
      while (k < KEYSIZE && i < N)
	indata[i++] = in_key[k++];

      BF_cfb64_encrypt (indata, outdata, i, ivec, &num, encordec);

      for (j = 0; j < i; j++)
    1e60:	1446fff9 	bne	v0,a2,1e48 <blowfish_main+0xcc>
    1e64:	24630001 	addiu	v1,v1,1
      ukey[i] = 0;
      ivec[i] = 0;
    }
  BF_set_key (8, ukey);
  i = 0;
  while (k < KEYSIZE)
    1e68:	1660ffdf 	bnez	s3,1de8 <blowfish_main+0x6c>
    1e6c:	023ef021 	addu	s8,s1,s8
	check += (outdata[j] != out_key[l++]);

      i = 0;
    }
  return check;
}
    1e70:	8fbf00a4 	lw	ra,164(sp)
    1e74:	02001021 	addu	v0,s0,zero
    1e78:	8fbe00a0 	lw	s8,160(sp)
    1e7c:	8fb7009c 	lw	s7,156(sp)
    1e80:	8fb60098 	lw	s6,152(sp)
    1e84:	8fb50094 	lw	s5,148(sp)
    1e88:	8fb40090 	lw	s4,144(sp)
    1e8c:	8fb3008c 	lw	s3,140(sp)
    1e90:	8fb20088 	lw	s2,136(sp)
    1e94:	8fb10084 	lw	s1,132(sp)
    1e98:	8fb00080 	lw	s0,128(sp)
    1e9c:	03e00008 	jr	ra
    1ea0:	27bd00a8 	addiu	sp,sp,168

00001ea4 <main>:

int
main ()
{
    1ea4:	27bdff58 	addiu	sp,sp,-168
  int num;
  int i, j, k, l;
  int encordec;
  int check;

  num = 0;
    1ea8:	27a2001c 	addiu	v0,sp,28
  return check;
}

int
main ()
{
    1eac:	afbe00a0 	sw	s8,160(sp)
    1eb0:	afb7009c 	sw	s7,156(sp)
    1eb4:	afb60098 	sw	s6,152(sp)
    1eb8:	afb50094 	sw	s5,148(sp)
    1ebc:	afb40090 	sw	s4,144(sp)
    1ec0:	afb20088 	sw	s2,136(sp)
    1ec4:	afb00080 	sw	s0,128(sp)
    1ec8:	afbf00a4 	sw	ra,164(sp)
    1ecc:	afb3008c 	sw	s3,140(sp)
    1ed0:	afb10084 	sw	s1,132(sp)
  int num;
  int i, j, k, l;
  int encordec;
  int check;

  num = 0;
    1ed4:	afa00018 	sw	zero,24(sp)
  l = 0;
  encordec = 1;
  check = 0;
  for (i = 0; i < 8; i++)
    {
      ukey[i] = 0;
    1ed8:	afa0001c 	sw	zero,28(sp)
      ivec[i] = 0;
    1edc:	afa00024 	sw	zero,36(sp)
    }
  BF_set_key (8, ukey);
    1ee0:	00402021 	addu	a0,v0,zero
  l = 0;
  encordec = 1;
  check = 0;
  for (i = 0; i < 8; i++)
    {
      ukey[i] = 0;
    1ee4:	ac400004 	sw	zero,4(v0)
    1ee8:	3c150000 	lui	s5,0x0
      ivec[i] = 0;
    1eec:	afa00028 	sw	zero,40(sp)
    }
  BF_set_key (8, ukey);
    1ef0:	0c000218 	jal	860 <BF_set_key.clone.2>
    1ef4:	0000f021 	addu	s8,zero,zero

  num = 0;
  k = 0;
  l = 0;
  encordec = 1;
  check = 0;
    1ef8:	00008021 	addu	s0,zero,zero
  int i, j, k, l;
  int encordec;
  int check;

  num = 0;
  k = 0;
    1efc:	00009021 	addu	s2,zero,zero
    1f00:	27b4002c 	addiu	s4,sp,44
    1f04:	26b50000 	addiu	s5,s5,0
    1f08:	27b70054 	addiu	s7,sp,84
    }
  BF_set_key (8, ukey);
  i = 0;
  while (k < KEYSIZE)
    {
      while (k < KEYSIZE && i < N)
    1f0c:	24160028 	addiu	s6,zero,40
  int i, j, k, l;
  int encordec;
  int check;

  num = 0;
  k = 0;
    1f10:	080007c8 	j	1f20 <main+0x7c>
    1f14:	00008821 	addu	s1,zero,zero
    }
  BF_set_key (8, ukey);
  i = 0;
  while (k < KEYSIZE)
    {
      while (k < KEYSIZE && i < N)
    1f18:	1236000a 	beq	s1,s6,1f44 <main+0xa0>
    1f1c:	27a20018 	addiu	v0,sp,24
    }
  return check;
}

int
main ()
    1f20:	02b21021 	addu	v0,s5,s2
  BF_set_key (8, ukey);
  i = 0;
  while (k < KEYSIZE)
    {
      while (k < KEYSIZE && i < N)
	indata[i++] = in_key[k++];
    1f24:	90430000 	lbu	v1,0(v0)
    1f28:	26520001 	addiu	s2,s2,1
    }
  return check;
}

int
main ()
    1f2c:	02911021 	addu	v0,s4,s1
    }
  BF_set_key (8, ukey);
  i = 0;
  while (k < KEYSIZE)
    {
      while (k < KEYSIZE && i < N)
    1f30:	2a531450 	slti	s3,s2,5200
	indata[i++] = in_key[k++];
    1f34:	a0430000 	sb	v1,0(v0)
    }
  BF_set_key (8, ukey);
  i = 0;
  while (k < KEYSIZE)
    {
      while (k < KEYSIZE && i < N)
    1f38:	1660fff7 	bnez	s3,1f18 <main+0x74>
    1f3c:	26310001 	addiu	s1,s1,1
	indata[i++] = in_key[k++];

      BF_cfb64_encrypt (indata, outdata, i, ivec, &num, encordec);
    1f40:	27a20018 	addiu	v0,sp,24
    1f44:	02802021 	addu	a0,s4,zero
    1f48:	02203021 	addu	a2,s1,zero
    1f4c:	02e02821 	addu	a1,s7,zero
    1f50:	27a70024 	addiu	a3,sp,36
    1f54:	0c0001bd 	jal	6f4 <BF_cfb64_encrypt.clone.1>
    1f58:	afa20010 	sw	v0,16(sp)
    }
  return check;
}

int
main ()
    1f5c:	3c040000 	lui	a0,0x0
    1f60:	24840000 	addiu	a0,a0,0
  while (k < KEYSIZE)
    {
      while (k < KEYSIZE && i < N)
	indata[i++] = in_key[k++];

      BF_cfb64_encrypt (indata, outdata, i, ivec, &num, encordec);
    1f64:	02e01021 	addu	v0,s7,zero
    }
  return check;
}

int
main ()
    1f68:	009e1821 	addu	v1,a0,s8
    1f6c:	02f13021 	addu	a2,s7,s1
	indata[i++] = in_key[k++];

      BF_cfb64_encrypt (indata, outdata, i, ivec, &num, encordec);

      for (j = 0; j < i; j++)
	check += (outdata[j] != out_key[l++]);
    1f70:	90450000 	lbu	a1,0(v0)
    1f74:	90640000 	lbu	a0,0(v1)
    1f78:	24420001 	addiu	v0,v0,1
    1f7c:	00a42026 	xor	a0,a1,a0
    1f80:	0004202b 	sltu	a0,zero,a0
    1f84:	02048021 	addu	s0,s0,a0
      while (k < KEYSIZE && i < N)
	indata[i++] = in_key[k++];

      BF_cfb64_encrypt (indata, outdata, i, ivec, &num, encordec);

      for (j = 0; j < i; j++)
    1f88:	1446fff9 	bne	v0,a2,1f70 <main+0xcc>
    1f8c:	24630001 	addiu	v1,v1,1
      ukey[i] = 0;
      ivec[i] = 0;
    }
  BF_set_key (8, ukey);
  i = 0;
  while (k < KEYSIZE)
    1f90:	1660ffdf 	bnez	s3,1f10 <main+0x6c>
    1f94:	023ef021 	addu	s8,s1,s8
  int main_result;

      main_result = 0;
      main_result = blowfish_main ();

      printf ("%d\n", main_result);
    1f98:	3c040000 	lui	a0,0x0
    1f9c:	02002821 	addu	a1,s0,zero
    1fa0:	0c000000 	jal	0 <BF_encrypt.clone.0>
    1fa4:	24840000 	addiu	a0,a0,0

      return main_result;
    }
    1fa8:	8fbf00a4 	lw	ra,164(sp)
    1fac:	02001021 	addu	v0,s0,zero
    1fb0:	8fbe00a0 	lw	s8,160(sp)
    1fb4:	8fb7009c 	lw	s7,156(sp)
    1fb8:	8fb60098 	lw	s6,152(sp)
    1fbc:	8fb50094 	lw	s5,148(sp)
    1fc0:	8fb40090 	lw	s4,144(sp)
    1fc4:	8fb3008c 	lw	s3,140(sp)
    1fc8:	8fb20088 	lw	s2,136(sp)
    1fcc:	8fb10084 	lw	s1,132(sp)
    1fd0:	8fb00080 	lw	s0,128(sp)
    1fd4:	03e00008 	jr	ra
    1fd8:	27bd00a8 	addiu	sp,sp,168
