
main.o:     file format elf32-bigmips


Disassembly of section .text:

00000000 <read_byte>:
 *  Read from Buffer
 */
int
read_byte (void)
{
  return *ReadBuf++;
       0:	8f830014 	lw	v1,20(gp)
       4:	00000000 	sll	zero,zero,0x0
       8:	90620000 	lbu	v0,0(v1)
       c:	24630001 	addiu	v1,v1,1
}
      10:	03e00008 	jr	ra
      14:	af830014 	sw	v1,20(gp)

00000018 <read_word>:
short
read_word (void)
{
  short c;

  c = *ReadBuf++ << 8;
      18:	8f830014 	lw	v1,20(gp)
      1c:	00000000 	sll	zero,zero,0x0
      20:	80620000 	lb	v0,0(v1)
  c |= *ReadBuf++;
      24:	90640001 	lbu	a0,1(v1)
short
read_word (void)
{
  short c;

  c = *ReadBuf++ << 8;
      28:	00021200 	sll	v0,v0,0x8
  c |= *ReadBuf++;
      2c:	24630002 	addiu	v1,v1,2
      30:	af830014 	sw	v1,20(gp)

  return c;
}
      34:	03e00008 	jr	ra
      38:	00441025 	or	v0,v0,a0

0000003c <first_marker>:
 *  Read from Buffer
 */
int
read_byte (void)
{
  return *ReadBuf++;
      3c:	8f820014 	lw	v0,20(gp)
  return c;
}

int
first_marker (void)
{
      40:	27bdffe8 	addiu	sp,sp,-24
      44:	afbf0014 	sw	ra,20(sp)
 *  Read from Buffer
 */
int
read_byte (void)
{
  return *ReadBuf++;
      48:	90430000 	lbu	v1,0(v0)
      4c:	24440002 	addiu	a0,v0,2
      50:	90450001 	lbu	a1,1(v0)
{
  int c1, c2;
  c1 = read_byte ();
  c2 = read_byte ();

  if (c1 != 0xFF || c2 != M_SOI)
      54:	240200ff 	addiu	v0,zero,255
      58:	14620008 	bne	v1,v0,7c <first_marker+0x40>
      5c:	af840014 	sw	a0,20(gp)
      60:	240200d8 	addiu	v0,zero,216
      64:	14a20005 	bne	a1,v0,7c <first_marker+0x40>
      68:	00000000 	sll	zero,zero,0x0
      printf ("Not Jpeg File!\n");
      EXIT;
    }

  return c2;
}
      6c:	8fbf0014 	lw	ra,20(sp)
      70:	00000000 	sll	zero,zero,0x0
      74:	03e00008 	jr	ra
      78:	27bd0018 	addiu	sp,sp,24
  c1 = read_byte ();
  c2 = read_byte ();

  if (c1 != 0xFF || c2 != M_SOI)
    {
      main_result++;
      7c:	8f820000 	lw	v0,0(gp)
      printf ("Not Jpeg File!\n");
      80:	3c040000 	lui	a0,0x0
  c1 = read_byte ();
  c2 = read_byte ();

  if (c1 != 0xFF || c2 != M_SOI)
    {
      main_result++;
      84:	24420001 	addiu	v0,v0,1
      printf ("Not Jpeg File!\n");
      88:	24840000 	addiu	a0,a0,0
      8c:	0c000000 	jal	0 <read_byte>
      90:	af820000 	sw	v0,0(gp)
      EXIT;
      94:	0c000000 	jal	0 <read_byte>
      98:	00002021 	addu	a0,zero,zero

0000009c <next_marker>:

      do
	{
	  c = read_byte ();
	}
      while (c == 0xff);
      9c:	8f830014 	lw	v1,20(gp)

  for (;;)
    {
      c = read_byte ();

      while (c != 0xff)
      a0:	240400ff 	addiu	a0,zero,255
 *  Read from Buffer
 */
int
read_byte (void)
{
  return *ReadBuf++;
      a4:	90620000 	lbu	v0,0(v1)
      a8:	00000000 	sll	zero,zero,0x0

  for (;;)
    {
      c = read_byte ();

      while (c != 0xff)
      ac:	1444fffd 	bne	v0,a0,a4 <next_marker+0x8>
      b0:	24630001 	addiu	v1,v1,1
 *  Read from Buffer
 */
int
read_byte (void)
{
  return *ReadBuf++;
      b4:	90620000 	lbu	v0,0(v1)
      b8:	00000000 	sll	zero,zero,0x0

      do
	{
	  c = read_byte ();
	}
      while (c == 0xff);
      bc:	1044fffd 	beq	v0,a0,b4 <next_marker+0x18>
      c0:	24630001 	addiu	v1,v1,1
      if (c != 0)
      c4:	1040fff7 	beqz	v0,a4 <next_marker+0x8>
      c8:	00000000 	sll	zero,zero,0x0
	break;
    }
  return c;
}
      cc:	03e00008 	jr	ra
      d0:	af830014 	sw	v1,20(gp)

000000d4 <get_sof>:
/*
 *  Baseline DCT ( Huffman )  
 */
void
get_sof ()
{
      d4:	27bdffc8 	addiu	sp,sp,-56
short
read_word (void)
{
  short c;

  c = *ReadBuf++ << 8;
      d8:	8f830014 	lw	v1,20(gp)
/*
 *  Baseline DCT ( Huffman )  
 */
void
get_sof ()
{
      dc:	afbf0034 	sw	ra,52(sp)
      e0:	afbe0030 	sw	s8,48(sp)
      e4:	afb7002c 	sw	s7,44(sp)
      e8:	afb60028 	sw	s6,40(sp)
      ec:	afb50024 	sw	s5,36(sp)
      f0:	afb40020 	sw	s4,32(sp)
      f4:	afb3001c 	sw	s3,28(sp)
      f8:	afb20018 	sw	s2,24(sp)
      fc:	afb10014 	sw	s1,20(sp)
     100:	afb00010 	sw	s0,16(sp)
 *  Read from Buffer
 */
int
read_byte (void)
{
  return *ReadBuf++;
     104:	90620002 	lbu	v0,2(v1)
read_word (void)
{
  short c;

  c = *ReadBuf++ << 8;
  c |= *ReadBuf++;
     108:	90640001 	lbu	a0,1(v1)
short
read_word (void)
{
  short c;

  c = *ReadBuf++ << 8;
     10c:	80700000 	lb	s0,0(v1)
  char *p_comp_info_h_samp_factor;
  char *p_comp_info_v_samp_factor;
  char *p_comp_info_quant_tbl_no;

  length = read_word ();
  p_jinfo_data_precision = read_byte ();
     110:	a3820000 	sb	v0,0(gp)
short
read_word (void)
{
  short c;

  c = *ReadBuf++ << 8;
     114:	80620003 	lb	v0,3(v1)
  c |= *ReadBuf++;
     118:	90650004 	lbu	a1,4(v1)
short
read_word (void)
{
  short c;

  c = *ReadBuf++ << 8;
     11c:	00021200 	sll	v0,v0,0x8
  c |= *ReadBuf++;
     120:	00451025 	or	v0,v0,a1
  char *p_comp_info_v_samp_factor;
  char *p_comp_info_quant_tbl_no;

  length = read_word ();
  p_jinfo_data_precision = read_byte ();
  p_jinfo_image_height = read_word ();
     124:	a7820000 	sh	v0,0(gp)
short
read_word (void)
{
  short c;

  c = *ReadBuf++ << 8;
     128:	80620005 	lb	v0,5(v1)
  c |= *ReadBuf++;
     12c:	90650006 	lbu	a1,6(v1)
short
read_word (void)
{
  short c;

  c = *ReadBuf++ << 8;
     130:	00021200 	sll	v0,v0,0x8
  c |= *ReadBuf++;
     134:	00451025 	or	v0,v0,a1
  char *p_comp_info_quant_tbl_no;

  length = read_word ();
  p_jinfo_data_precision = read_byte ();
  p_jinfo_image_height = read_word ();
  p_jinfo_image_width = read_word ();
     138:	a7820000 	sh	v0,0(gp)
short
read_word (void)
{
  short c;

  c = *ReadBuf++ << 8;
     13c:	00108200 	sll	s0,s0,0x8
 *  Read from Buffer
 */
int
read_byte (void)
{
  return *ReadBuf++;
     140:	90620007 	lbu	v0,7(v1)
  char *p_comp_info_id;
  char *p_comp_info_h_samp_factor;
  char *p_comp_info_v_samp_factor;
  char *p_comp_info_quant_tbl_no;

  length = read_word ();
     144:	02048025 	or	s0,s0,a0
  p_jinfo_data_precision = read_byte ();
  p_jinfo_image_height = read_word ();
  p_jinfo_image_width = read_word ();
  p_jinfo_num_components = read_byte ();

  printf ("length         = %d\n", length);
     148:	3c040000 	lui	a0,0x0
 *  Read from Buffer
 */
int
read_byte (void)
{
  return *ReadBuf++;
     14c:	24630008 	addiu	v1,v1,8
  p_jinfo_data_precision = read_byte ();
  p_jinfo_image_height = read_word ();
  p_jinfo_image_width = read_word ();
  p_jinfo_num_components = read_byte ();

  printf ("length         = %d\n", length);
     150:	24840000 	addiu	a0,a0,0
     154:	02002821 	addu	a1,s0,zero
 *  Read from Buffer
 */
int
read_byte (void)
{
  return *ReadBuf++;
     158:	af830014 	sw	v1,20(gp)
  p_jinfo_data_precision = read_byte ();
  p_jinfo_image_height = read_word ();
  p_jinfo_image_width = read_word ();
  p_jinfo_num_components = read_byte ();

  printf ("length         = %d\n", length);
     15c:	0c000000 	jal	0 <read_byte>
     160:	a3820000 	sb	v0,0(gp)
  printf ("data_precision = %d\n", p_jinfo_data_precision);
     164:	83850000 	lb	a1,0(gp)
     168:	3c040000 	lui	a0,0x0
     16c:	0c000000 	jal	0 <read_byte>
     170:	24840000 	addiu	a0,a0,0
  printf ("image_height   = %d\n", p_jinfo_image_height);
     174:	87850000 	lh	a1,0(gp)
     178:	3c040000 	lui	a0,0x0
     17c:	0c000000 	jal	0 <read_byte>
     180:	24840000 	addiu	a0,a0,0
  printf ("image_width    = %d\n", p_jinfo_image_width);
     184:	87850000 	lh	a1,0(gp)
     188:	3c040000 	lui	a0,0x0
     18c:	0c000000 	jal	0 <read_byte>
     190:	24840000 	addiu	a0,a0,0
  printf ("num_components = %d\n", p_jinfo_num_components);
     194:	83850000 	lb	a1,0(gp)
     198:	3c040000 	lui	a0,0x0
     19c:	0c000000 	jal	0 <read_byte>
     1a0:	24840000 	addiu	a0,a0,0

  if (length != out_length_get_sof)
     1a4:	8f820000 	lw	v0,0(gp)
     1a8:	00000000 	sll	zero,zero,0x0
     1ac:	12020005 	beq	s0,v0,1c4 <get_sof+0xf0>
     1b0:	00000000 	sll	zero,zero,0x0
    {
        main_result++;
     1b4:	8f820000 	lw	v0,0(gp)
     1b8:	00000000 	sll	zero,zero,0x0
     1bc:	24420001 	addiu	v0,v0,1
     1c0:	af820000 	sw	v0,0(gp)
    }
  if (p_jinfo_data_precision != out_data_precision_get_sof)
     1c4:	83830000 	lb	v1,0(gp)
     1c8:	8f820000 	lw	v0,0(gp)
     1cc:	00000000 	sll	zero,zero,0x0
     1d0:	10620005 	beq	v1,v0,1e8 <get_sof+0x114>
     1d4:	00000000 	sll	zero,zero,0x0
    {
        main_result++;
     1d8:	8f820000 	lw	v0,0(gp)
     1dc:	00000000 	sll	zero,zero,0x0
     1e0:	24420001 	addiu	v0,v0,1
     1e4:	af820000 	sw	v0,0(gp)
    }
  if (p_jinfo_image_height != out_p_jinfo_image_height_get_sof)
     1e8:	87830000 	lh	v1,0(gp)
     1ec:	8f820000 	lw	v0,0(gp)
     1f0:	00000000 	sll	zero,zero,0x0
     1f4:	10620005 	beq	v1,v0,20c <get_sof+0x138>
     1f8:	00000000 	sll	zero,zero,0x0
    {
        main_result++;
     1fc:	8f820000 	lw	v0,0(gp)
     200:	00000000 	sll	zero,zero,0x0
     204:	24420001 	addiu	v0,v0,1
     208:	af820000 	sw	v0,0(gp)
    }
  if (p_jinfo_image_width != out_p_jinfo_image_width_get_sof)
     20c:	87830000 	lh	v1,0(gp)
     210:	8f820000 	lw	v0,0(gp)
     214:	00000000 	sll	zero,zero,0x0
     218:	10620005 	beq	v1,v0,230 <get_sof+0x15c>
     21c:	00000000 	sll	zero,zero,0x0
    {
        main_result++;
     220:	8f820000 	lw	v0,0(gp)
     224:	00000000 	sll	zero,zero,0x0
     228:	24420001 	addiu	v0,v0,1
     22c:	af820000 	sw	v0,0(gp)
    }
  if (p_jinfo_num_components != out_p_jinfo_num_components_get_sof)
     230:	83820000 	lb	v0,0(gp)
     234:	8f830000 	lw	v1,0(gp)
     238:	00000000 	sll	zero,zero,0x0
     23c:	10430005 	beq	v0,v1,254 <get_sof+0x180>
     240:	00000000 	sll	zero,zero,0x0
    {
        main_result++;
     244:	8f830000 	lw	v1,0(gp)
     248:	00000000 	sll	zero,zero,0x0
     24c:	24630001 	addiu	v1,v1,1
     250:	af830000 	sw	v1,0(gp)
  length -= 8;

  /* Omit error check */

  /* Check components */
  for (ci = 0; ci < p_jinfo_num_components; ci++)
     254:	1840006c 	blez	v0,408 <get_sof+0x334>
     258:	3c1e0000 	lui	s8,0x0
      *p_comp_info_quant_tbl_no = read_byte ();

      printf (" index         = %d\n", *p_comp_info_index);
      printf (" id            = %d\n", *p_comp_info_id);
      printf (" h_samp_factor = %d\n", *p_comp_info_h_samp_factor);
      printf (" v_samp_factor = %d\n", *p_comp_info_v_samp_factor);
     25c:	3c170000 	lui	s7,0x0
  length -= 8;

  /* Omit error check */

  /* Check components */
  for (ci = 0; ci < p_jinfo_num_components; ci++)
     260:	27960000 	addiu	s6,gp,0
     264:	27950000 	addiu	s5,gp,0
     268:	27940000 	addiu	s4,gp,0
     26c:	27930000 	addiu	s3,gp,0
     270:	27920000 	addiu	s2,gp,0
     274:	00008021 	addu	s0,zero,zero
     278:	00008821 	addu	s1,zero,zero
      *p_comp_info_v_samp_factor = (c) & 15;
      *p_comp_info_quant_tbl_no = read_byte ();

      printf (" index         = %d\n", *p_comp_info_index);
      printf (" id            = %d\n", *p_comp_info_id);
      printf (" h_samp_factor = %d\n", *p_comp_info_h_samp_factor);
     27c:	27de0000 	addiu	s8,s8,0
      printf (" v_samp_factor = %d\n", *p_comp_info_v_samp_factor);
     280:	26f70000 	addiu	s7,s7,0
 *  Read from Buffer
 */
int
read_byte (void)
{
  return *ReadBuf++;
     284:	8f820014 	lw	v0,20(gp)
      p_comp_info_id = &p_jinfo_comps_info_id[ci];
      p_comp_info_h_samp_factor = &p_jinfo_comps_info_h_samp_factor[ci];
      p_comp_info_v_samp_factor = &p_jinfo_comps_info_v_samp_factor[ci];
      p_comp_info_quant_tbl_no = &p_jinfo_comps_info_quant_tbl_no[ci];

      *p_comp_info_index = ci;
     288:	a2d10000 	sb	s1,0(s6)
 *  Read from Buffer
 */
int
read_byte (void)
{
  return *ReadBuf++;
     28c:	90440000 	lbu	a0,0(v0)
     290:	24430003 	addiu	v1,v0,3
      p_comp_info_h_samp_factor = &p_jinfo_comps_info_h_samp_factor[ci];
      p_comp_info_v_samp_factor = &p_jinfo_comps_info_v_samp_factor[ci];
      p_comp_info_quant_tbl_no = &p_jinfo_comps_info_quant_tbl_no[ci];

      *p_comp_info_index = ci;
      *p_comp_info_id = read_byte ();
     294:	a2a40000 	sb	a0,0(s5)
 *  Read from Buffer
 */
int
read_byte (void)
{
  return *ReadBuf++;
     298:	90440001 	lbu	a0,1(v0)
      c = read_byte ();
      *p_comp_info_h_samp_factor = (c >> 4) & 15;
      *p_comp_info_v_samp_factor = (c) & 15;
      *p_comp_info_quant_tbl_no = read_byte ();

      printf (" index         = %d\n", *p_comp_info_index);
     29c:	02202821 	addu	a1,s1,zero
      p_comp_info_quant_tbl_no = &p_jinfo_comps_info_quant_tbl_no[ci];

      *p_comp_info_index = ci;
      *p_comp_info_id = read_byte ();
      c = read_byte ();
      *p_comp_info_h_samp_factor = (c >> 4) & 15;
     2a0:	00043102 	srl	a2,a0,0x4
      *p_comp_info_v_samp_factor = (c) & 15;
     2a4:	3084000f 	andi	a0,a0,0xf
      p_comp_info_quant_tbl_no = &p_jinfo_comps_info_quant_tbl_no[ci];

      *p_comp_info_index = ci;
      *p_comp_info_id = read_byte ();
      c = read_byte ();
      *p_comp_info_h_samp_factor = (c >> 4) & 15;
     2a8:	a2860000 	sb	a2,0(s4)
      *p_comp_info_v_samp_factor = (c) & 15;
     2ac:	a2640000 	sb	a0,0(s3)
 *  Read from Buffer
 */
int
read_byte (void)
{
  return *ReadBuf++;
     2b0:	90420002 	lbu	v0,2(v0)
      c = read_byte ();
      *p_comp_info_h_samp_factor = (c >> 4) & 15;
      *p_comp_info_v_samp_factor = (c) & 15;
      *p_comp_info_quant_tbl_no = read_byte ();

      printf (" index         = %d\n", *p_comp_info_index);
     2b4:	3c040000 	lui	a0,0x0
     2b8:	24840000 	addiu	a0,a0,0
 *  Read from Buffer
 */
int
read_byte (void)
{
  return *ReadBuf++;
     2bc:	af830014 	sw	v1,20(gp)
      c = read_byte ();
      *p_comp_info_h_samp_factor = (c >> 4) & 15;
      *p_comp_info_v_samp_factor = (c) & 15;
      *p_comp_info_quant_tbl_no = read_byte ();

      printf (" index         = %d\n", *p_comp_info_index);
     2c0:	0c000000 	jal	0 <read_byte>
     2c4:	a2420000 	sb	v0,0(s2)
      printf (" id            = %d\n", *p_comp_info_id);
     2c8:	82a50000 	lb	a1,0(s5)
     2cc:	3c040000 	lui	a0,0x0
     2d0:	0c000000 	jal	0 <read_byte>
     2d4:	24840000 	addiu	a0,a0,0
      printf (" h_samp_factor = %d\n", *p_comp_info_h_samp_factor);
     2d8:	82850000 	lb	a1,0(s4)
     2dc:	0c000000 	jal	0 <read_byte>
     2e0:	03c02021 	addu	a0,s8,zero
      printf (" v_samp_factor = %d\n", *p_comp_info_v_samp_factor);
     2e4:	82650000 	lb	a1,0(s3)
     2e8:	0c000000 	jal	0 <read_byte>
     2ec:	02e02021 	addu	a0,s7,zero
      printf (" quant_tbl_no  = %d\n\n", *p_comp_info_quant_tbl_no);
     2f0:	3c040000 	lui	a0,0x0
     2f4:	82450000 	lb	a1,0(s2)
     2f8:	0c000000 	jal	0 <read_byte>
     2fc:	24840000 	addiu	a0,a0,0

/*
 *  Baseline DCT ( Huffman )  
 */
void
get_sof ()
     300:	3c030000 	lui	v1,0x0
     304:	24630000 	addiu	v1,v1,0
     308:	00701021 	addu	v0,v1,s0
      printf (" id            = %d\n", *p_comp_info_id);
      printf (" h_samp_factor = %d\n", *p_comp_info_h_samp_factor);
      printf (" v_samp_factor = %d\n", *p_comp_info_v_samp_factor);
      printf (" quant_tbl_no  = %d\n\n", *p_comp_info_quant_tbl_no);

      if (*p_comp_info_index != out_index_get_sof[ci])
     30c:	8c420000 	lw	v0,0(v0)
     310:	82c30000 	lb	v1,0(s6)
     314:	00000000 	sll	zero,zero,0x0
     318:	10620005 	beq	v1,v0,330 <get_sof+0x25c>
     31c:	3c030000 	lui	v1,0x0
	{
		main_result++;
     320:	8f820000 	lw	v0,0(gp)
     324:	00000000 	sll	zero,zero,0x0
     328:	24420001 	addiu	v0,v0,1
     32c:	af820000 	sw	v0,0(gp)

/*
 *  Baseline DCT ( Huffman )  
 */
void
get_sof ()
     330:	24630000 	addiu	v1,v1,0
     334:	00701021 	addu	v0,v1,s0

      if (*p_comp_info_index != out_index_get_sof[ci])
	{
		main_result++;
	}
      if (*p_comp_info_id != out_id_get_sof[ci])
     338:	8c420000 	lw	v0,0(v0)
     33c:	82a30000 	lb	v1,0(s5)
     340:	00000000 	sll	zero,zero,0x0
     344:	10620005 	beq	v1,v0,35c <get_sof+0x288>
     348:	3c030000 	lui	v1,0x0
	{
		main_result++;
     34c:	8f820000 	lw	v0,0(gp)
     350:	00000000 	sll	zero,zero,0x0
     354:	24420001 	addiu	v0,v0,1
     358:	af820000 	sw	v0,0(gp)

/*
 *  Baseline DCT ( Huffman )  
 */
void
get_sof ()
     35c:	24630000 	addiu	v1,v1,0
     360:	00701021 	addu	v0,v1,s0
	}
      if (*p_comp_info_id != out_id_get_sof[ci])
	{
		main_result++;
	}
      if (*p_comp_info_h_samp_factor != out_h_samp_factor_get_sof[ci])
     364:	8c420000 	lw	v0,0(v0)
     368:	82830000 	lb	v1,0(s4)
     36c:	00000000 	sll	zero,zero,0x0
     370:	10620005 	beq	v1,v0,388 <get_sof+0x2b4>
     374:	3c030000 	lui	v1,0x0
	{
		main_result++;
     378:	8f820000 	lw	v0,0(gp)
     37c:	00000000 	sll	zero,zero,0x0
     380:	24420001 	addiu	v0,v0,1
     384:	af820000 	sw	v0,0(gp)

/*
 *  Baseline DCT ( Huffman )  
 */
void
get_sof ()
     388:	24630000 	addiu	v1,v1,0
     38c:	00701021 	addu	v0,v1,s0
	}
      if (*p_comp_info_h_samp_factor != out_h_samp_factor_get_sof[ci])
	{
		main_result++;
	}
      if (*p_comp_info_v_samp_factor != out_v_samp_factor_get_sof[ci])
     390:	8c420000 	lw	v0,0(v0)
     394:	82630000 	lb	v1,0(s3)
     398:	00000000 	sll	zero,zero,0x0
     39c:	10620005 	beq	v1,v0,3b4 <get_sof+0x2e0>
     3a0:	3c030000 	lui	v1,0x0
	{
		main_result++;
     3a4:	8f820000 	lw	v0,0(gp)
     3a8:	00000000 	sll	zero,zero,0x0
     3ac:	24420001 	addiu	v0,v0,1
     3b0:	af820000 	sw	v0,0(gp)

/*
 *  Baseline DCT ( Huffman )  
 */
void
get_sof ()
     3b4:	24630000 	addiu	v1,v1,0
     3b8:	00701021 	addu	v0,v1,s0
	}
      if (*p_comp_info_v_samp_factor != out_v_samp_factor_get_sof[ci])
	{
		main_result++;
	}
      if (*p_comp_info_quant_tbl_no != out_quant_tbl_no_get_sof[ci])
     3bc:	8c420000 	lw	v0,0(v0)
     3c0:	82430000 	lb	v1,0(s2)
     3c4:	00000000 	sll	zero,zero,0x0
     3c8:	10620005 	beq	v1,v0,3e0 <get_sof+0x30c>
     3cc:	00000000 	sll	zero,zero,0x0
	{
		main_result++;
     3d0:	8f820000 	lw	v0,0(gp)
     3d4:	00000000 	sll	zero,zero,0x0
     3d8:	24420001 	addiu	v0,v0,1
     3dc:	af820000 	sw	v0,0(gp)
  length -= 8;

  /* Omit error check */

  /* Check components */
  for (ci = 0; ci < p_jinfo_num_components; ci++)
     3e0:	83820000 	lb	v0,0(gp)
     3e4:	26310001 	addiu	s1,s1,1
     3e8:	0222102a 	slt	v0,s1,v0
     3ec:	26d60001 	addiu	s6,s6,1
     3f0:	26b50001 	addiu	s5,s5,1
     3f4:	26940001 	addiu	s4,s4,1
     3f8:	26730001 	addiu	s3,s3,1
     3fc:	26520001 	addiu	s2,s2,1
     400:	1440ffa0 	bnez	v0,284 <get_sof+0x1b0>
     404:	26100004 	addiu	s0,s0,4

  /*
   *  Determine Sampling Factor
   *  Only 1_1_1 and 4_1_1 are supported
   */
  if (p_jinfo_comps_info_h_samp_factor[0] == 2)
     408:	83820000 	lb	v0,0(gp)
     40c:	24030002 	addiu	v1,zero,2
     410:	1043000f 	beq	v0,v1,450 <get_sof+0x37c>
     414:	3c040000 	lui	a0,0x0
      printf ("\nSampling Factor is 4:1:1\n");
    }
  else
    {
      p_jinfo_smp_fact = SF1_1_1;
      printf ("\nSampling Factor is 1:1:1\n");
     418:	24840000 	addiu	a0,a0,0
      p_jinfo_smp_fact = SF4_1_1;
      printf ("\nSampling Factor is 4:1:1\n");
    }
  else
    {
      p_jinfo_smp_fact = SF1_1_1;
     41c:	af800000 	sw	zero,0(gp)
      printf ("\nSampling Factor is 1:1:1\n");
    }
}
     420:	8fbf0034 	lw	ra,52(sp)
     424:	8fbe0030 	lw	s8,48(sp)
     428:	8fb7002c 	lw	s7,44(sp)
     42c:	8fb60028 	lw	s6,40(sp)
     430:	8fb50024 	lw	s5,36(sp)
     434:	8fb40020 	lw	s4,32(sp)
     438:	8fb3001c 	lw	s3,28(sp)
     43c:	8fb20018 	lw	s2,24(sp)
     440:	8fb10014 	lw	s1,20(sp)
     444:	8fb00010 	lw	s0,16(sp)
      printf ("\nSampling Factor is 4:1:1\n");
    }
  else
    {
      p_jinfo_smp_fact = SF1_1_1;
      printf ("\nSampling Factor is 1:1:1\n");
     448:	08000000 	j	0 <read_byte>
     44c:	27bd0038 	addiu	sp,sp,56
   *  Only 1_1_1 and 4_1_1 are supported
   */
  if (p_jinfo_comps_info_h_samp_factor[0] == 2)
    {
      p_jinfo_smp_fact = SF4_1_1;
      printf ("\nSampling Factor is 4:1:1\n");
     450:	3c040000 	lui	a0,0x0
     454:	24840000 	addiu	a0,a0,0
   *  Determine Sampling Factor
   *  Only 1_1_1 and 4_1_1 are supported
   */
  if (p_jinfo_comps_info_h_samp_factor[0] == 2)
    {
      p_jinfo_smp_fact = SF4_1_1;
     458:	08000108 	j	420 <get_sof+0x34c>
     45c:	af820000 	sw	v0,0(gp)

00000460 <get_sos>:
}


void
get_sos ()
{
     460:	27bdffc8 	addiu	sp,sp,-56
short
read_word (void)
{
  short c;

  c = *ReadBuf++ << 8;
     464:	8f820014 	lw	v0,20(gp)
}


void
get_sos ()
{
     468:	afbf0034 	sw	ra,52(sp)
     46c:	afbe0030 	sw	s8,48(sp)
     470:	afb7002c 	sw	s7,44(sp)
     474:	afb60028 	sw	s6,40(sp)
     478:	afb50024 	sw	s5,36(sp)
     47c:	afb40020 	sw	s4,32(sp)
     480:	afb3001c 	sw	s3,28(sp)
     484:	afb20018 	sw	s2,24(sp)
     488:	afb10014 	sw	s1,20(sp)
     48c:	afb00010 	sw	s0,16(sp)
short
read_word (void)
{
  short c;

  c = *ReadBuf++ << 8;
     490:	80500000 	lb	s0,0(v0)
  c |= *ReadBuf++;
     494:	90430001 	lbu	v1,1(v0)
short
read_word (void)
{
  short c;

  c = *ReadBuf++ << 8;
     498:	00108200 	sll	s0,s0,0x8
  int i, c, cc, ci, j;
  char *p_comp_info_id;
  char *p_comp_info_dc_tbl_no;
  char *p_comp_info_ac_tbl_no;

  length = read_word ();
     49c:	02038025 	or	s0,s0,v1
  num_comp = read_byte ();

  printf (" length = %d\n", length);
     4a0:	3c040000 	lui	a0,0x0
 *  Read from Buffer
 */
int
read_byte (void)
{
  return *ReadBuf++;
     4a4:	905e0002 	lbu	s8,2(v0)
  char *p_comp_info_ac_tbl_no;

  length = read_word ();
  num_comp = read_byte ();

  printf (" length = %d\n", length);
     4a8:	24840000 	addiu	a0,a0,0
 *  Read from Buffer
 */
int
read_byte (void)
{
  return *ReadBuf++;
     4ac:	24420003 	addiu	v0,v0,3
  char *p_comp_info_ac_tbl_no;

  length = read_word ();
  num_comp = read_byte ();

  printf (" length = %d\n", length);
     4b0:	02002821 	addu	a1,s0,zero
     4b4:	0c000000 	jal	0 <read_byte>
     4b8:	af820014 	sw	v0,20(gp)
  printf (" num_comp = %d\n", num_comp);
     4bc:	3c040000 	lui	a0,0x0
     4c0:	24840000 	addiu	a0,a0,0
     4c4:	0c000000 	jal	0 <read_byte>
     4c8:	03c02821 	addu	a1,s8,zero

  if (length != out_length_get_sos)
     4cc:	8f820000 	lw	v0,0(gp)
     4d0:	00000000 	sll	zero,zero,0x0
     4d4:	12020005 	beq	s0,v0,4ec <get_sos+0x8c>
     4d8:	00000000 	sll	zero,zero,0x0
    {
        main_result++;
     4dc:	8f820000 	lw	v0,0(gp)
     4e0:	00000000 	sll	zero,zero,0x0
     4e4:	24420001 	addiu	v0,v0,1
     4e8:	af820000 	sw	v0,0(gp)
    }
  if (num_comp != out_num_comp_get_sos)
     4ec:	8f820000 	lw	v0,0(gp)
     4f0:	00000000 	sll	zero,zero,0x0
     4f4:	105e0005 	beq	v0,s8,50c <get_sos+0xac>
     4f8:	00000000 	sll	zero,zero,0x0
    {
        main_result++;
     4fc:	8f820000 	lw	v0,0(gp)
     500:	00000000 	sll	zero,zero,0x0
     504:	24420001 	addiu	v0,v0,1
     508:	af820000 	sw	v0,0(gp)
    }

  /* Decode each component */
  for (i = 0; i < num_comp; i++)
     50c:	13c00055 	beqz	s8,664 <get_sos+0x204>
     510:	00009821 	addu	s3,zero,zero
    }
}


void
get_sos ()
     514:	27920000 	addiu	s2,gp,0
      main_result++;
      printf ("Bad Component ID!\n");
      EXIT;

    id_found:
      *p_comp_info_dc_tbl_no = (c >> 4) & 15;
     518:	27970000 	addiu	s7,gp,0
      *p_comp_info_ac_tbl_no = (c) & 15;
     51c:	27960000 	addiu	s6,gp,0
 *  Read from Buffer
 */
int
read_byte (void)
{
  return *ReadBuf++;
     520:	8f820014 	lw	v0,20(gp)
  for (i = 0; i < num_comp; i++)
    {
      cc = read_byte ();
      c = read_byte ();

      for (ci = 0; ci < p_jinfo_num_components; ci++)
     524:	83850000 	lb	a1,0(gp)
 *  Read from Buffer
 */
int
read_byte (void)
{
  return *ReadBuf++;
     528:	24430002 	addiu	v1,v0,2
     52c:	90510000 	lbu	s1,0(v0)
     530:	90420001 	lbu	v0,1(v0)
  for (i = 0; i < num_comp; i++)
    {
      cc = read_byte ();
      c = read_byte ();

      for (ci = 0; ci < p_jinfo_num_components; ci++)
     534:	18a0005d 	blez	a1,6ac <get_sos+0x24c>
     538:	af830014 	sw	v1,20(gp)
	{
	  p_comp_info_id = &p_jinfo_comps_info_id[ci];
	  p_comp_info_dc_tbl_no = &p_jinfo_comps_info_dc_tbl_no[ci];
	  p_comp_info_ac_tbl_no = &p_jinfo_comps_info_ac_tbl_no[ci];

	  if (cc == *p_comp_info_id)
     53c:	83830000 	lb	v1,0(gp)
     540:	00000000 	sll	zero,zero,0x0
     544:	10710057 	beq	v1,s1,6a4 <get_sos+0x244>
     548:	00001821 	addu	v1,zero,zero
  for (i = 0; i < num_comp; i++)
    {
      cc = read_byte ();
      c = read_byte ();

      for (ci = 0; ci < p_jinfo_num_components; ci++)
     54c:	24630001 	addiu	v1,v1,1
     550:	0065202a 	slt	a0,v1,a1
     554:	10800055 	beqz	a0,6ac <get_sos+0x24c>
     558:	00000000 	sll	zero,zero,0x0
    }
}


void
get_sos ()
     55c:	02432021 	addu	a0,s2,v1
	{
	  p_comp_info_id = &p_jinfo_comps_info_id[ci];
	  p_comp_info_dc_tbl_no = &p_jinfo_comps_info_dc_tbl_no[ci];
	  p_comp_info_ac_tbl_no = &p_jinfo_comps_info_ac_tbl_no[ci];

	  if (cc == *p_comp_info_id)
     560:	80840000 	lb	a0,0(a0)
     564:	00000000 	sll	zero,zero,0x0
     568:	1491fff8 	bne	a0,s1,54c <get_sos+0xec>
     56c:	00608021 	addu	s0,v1,zero
      main_result++;
      printf ("Bad Component ID!\n");
      EXIT;

    id_found:
      *p_comp_info_dc_tbl_no = (c >> 4) & 15;
     570:	00021902 	srl	v1,v0,0x4
     574:	02f0a821 	addu	s5,s7,s0
      *p_comp_info_ac_tbl_no = (c) & 15;
     578:	02d0a021 	addu	s4,s6,s0
     57c:	3042000f 	andi	v0,v0,0xf

      printf (" comp_id       = %d\n", cc);
     580:	3c040000 	lui	a0,0x0
      main_result++;
      printf ("Bad Component ID!\n");
      EXIT;

    id_found:
      *p_comp_info_dc_tbl_no = (c >> 4) & 15;
     584:	a2a30000 	sb	v1,0(s5)
      *p_comp_info_ac_tbl_no = (c) & 15;

      printf (" comp_id       = %d\n", cc);
     588:	02202821 	addu	a1,s1,zero
     58c:	24840000 	addiu	a0,a0,0
     590:	0c000000 	jal	0 <read_byte>
     594:	a2820000 	sb	v0,0(s4)
      printf (" dc_tbl_no     = %d\n", *p_comp_info_dc_tbl_no);
     598:	82a50000 	lb	a1,0(s5)
     59c:	3c040000 	lui	a0,0x0
     5a0:	0c000000 	jal	0 <read_byte>
     5a4:	24840000 	addiu	a0,a0,0
      printf (" ac_tbl_no     = %d\n", *p_comp_info_ac_tbl_no);
     5a8:	82850000 	lb	a1,0(s4)
     5ac:	3c040000 	lui	a0,0x0
     5b0:	0c000000 	jal	0 <read_byte>
     5b4:	24840000 	addiu	a0,a0,0

      if (cc != out_comp_id_get_sos[i_get_sos])
     5b8:	8f830000 	lw	v1,0(gp)
     5bc:	3c050000 	lui	a1,0x0
     5c0:	00031080 	sll	v0,v1,0x2
     5c4:	24a50000 	addiu	a1,a1,0
     5c8:	00a22021 	addu	a0,a1,v0
     5cc:	8c840000 	lw	a0,0(a0)
     5d0:	00000000 	sll	zero,zero,0x0
     5d4:	10910005 	beq	a0,s1,5ec <get_sos+0x18c>
     5d8:	3c060000 	lui	a2,0x0
	{
		main_result++;
     5dc:	8f840000 	lw	a0,0(gp)
     5e0:	00000000 	sll	zero,zero,0x0
     5e4:	24840001 	addiu	a0,a0,1
     5e8:	af840000 	sw	a0,0(gp)
	}
      if (*p_comp_info_dc_tbl_no != out_dc_tbl_no_get_sos[i_get_sos])
     5ec:	24c60000 	addiu	a2,a2,0
     5f0:	02f02821 	addu	a1,s7,s0
     5f4:	00c22021 	addu	a0,a2,v0
     5f8:	80a50000 	lb	a1,0(a1)
     5fc:	8c840000 	lw	a0,0(a0)
     600:	00000000 	sll	zero,zero,0x0
     604:	10a40006 	beq	a1,a0,620 <get_sos+0x1c0>
     608:	3c040000 	lui	a0,0x0
	{
		main_result++;
     60c:	8f840000 	lw	a0,0(gp)
     610:	00000000 	sll	zero,zero,0x0
     614:	24840001 	addiu	a0,a0,1
     618:	af840000 	sw	a0,0(gp)
	}
      if (*p_comp_info_ac_tbl_no != out_ac_tbl_no_get_sos[i_get_sos])
     61c:	3c040000 	lui	a0,0x0
     620:	24840000 	addiu	a0,a0,0
     624:	00821021 	addu	v0,a0,v0
     628:	02d08021 	addu	s0,s6,s0
     62c:	82040000 	lb	a0,0(s0)
     630:	8c420000 	lw	v0,0(v0)
     634:	00000000 	sll	zero,zero,0x0
     638:	10820005 	beq	a0,v0,650 <get_sos+0x1f0>
     63c:	00000000 	sll	zero,zero,0x0
	{
		main_result++;
     640:	8f820000 	lw	v0,0(gp)
     644:	00000000 	sll	zero,zero,0x0
     648:	24420001 	addiu	v0,v0,1
     64c:	af820000 	sw	v0,0(gp)
    {
        main_result++;
    }

  /* Decode each component */
  for (i = 0; i < num_comp; i++)
     650:	26730001 	addiu	s3,s3,1
	}
      if (*p_comp_info_ac_tbl_no != out_ac_tbl_no_get_sos[i_get_sos])
	{
		main_result++;
	}
      i_get_sos++;
     654:	24630001 	addiu	v1,v1,1
    {
        main_result++;
    }

  /* Decode each component */
  for (i = 0; i < num_comp; i++)
     658:	027e102a 	slt	v0,s3,s8
     65c:	1440ffb0 	bnez	v0,520 <get_sos+0xc0>
     660:	af830000 	sw	v1,0(gp)
 *  Read from Buffer
 */
int
read_byte (void)
{
  return *ReadBuf++;
     664:	8f820014 	lw	v0,20(gp)
  /*
   * Define the Buffer at this point as the head of data
   */
  p_jinfo_jpeg_data = ReadBuf;

}
     668:	8fbf0034 	lw	ra,52(sp)
 *  Read from Buffer
 */
int
read_byte (void)
{
  return *ReadBuf++;
     66c:	24420003 	addiu	v0,v0,3
  /*
   * Define the Buffer at this point as the head of data
   */
  p_jinfo_jpeg_data = ReadBuf;

}
     670:	8fbe0030 	lw	s8,48(sp)
     674:	8fb7002c 	lw	s7,44(sp)
     678:	8fb60028 	lw	s6,40(sp)
     67c:	8fb50024 	lw	s5,36(sp)
     680:	8fb40020 	lw	s4,32(sp)
     684:	8fb3001c 	lw	s3,28(sp)
     688:	8fb20018 	lw	s2,24(sp)
     68c:	8fb10014 	lw	s1,20(sp)
     690:	8fb00010 	lw	s0,16(sp)
 *  Read from Buffer
 */
int
read_byte (void)
{
  return *ReadBuf++;
     694:	af820014 	sw	v0,20(gp)
    }

  /*
   * Define the Buffer at this point as the head of data
   */
  p_jinfo_jpeg_data = ReadBuf;
     698:	af820000 	sw	v0,0(gp)

}
     69c:	03e00008 	jr	ra
     6a0:	27bd0038 	addiu	sp,sp,56
      cc = read_byte ();
      c = read_byte ();

      for (ci = 0; ci < p_jinfo_num_components; ci++)
	{
	  p_comp_info_id = &p_jinfo_comps_info_id[ci];
     6a4:	0800015c 	j	570 <get_sos+0x110>
     6a8:	00008021 	addu	s0,zero,zero
	  p_comp_info_ac_tbl_no = &p_jinfo_comps_info_ac_tbl_no[ci];

	  if (cc == *p_comp_info_id)
	    goto id_found;
	}
      main_result++;
     6ac:	8f820000 	lw	v0,0(gp)
      printf ("Bad Component ID!\n");
     6b0:	3c040000 	lui	a0,0x0
	  p_comp_info_ac_tbl_no = &p_jinfo_comps_info_ac_tbl_no[ci];

	  if (cc == *p_comp_info_id)
	    goto id_found;
	}
      main_result++;
     6b4:	24420001 	addiu	v0,v0,1
      printf ("Bad Component ID!\n");
     6b8:	24840000 	addiu	a0,a0,0
     6bc:	0c000000 	jal	0 <read_byte>
     6c0:	af820000 	sw	v0,0(gp)
      EXIT;
     6c4:	0c000000 	jal	0 <read_byte>
     6c8:	00002021 	addu	a0,zero,zero

000006cc <get_dht>:
/*
 * Get Huffman Table
 */
void
get_dht ()
{
     6cc:	27bdffc8 	addiu	sp,sp,-56
short
read_word (void)
{
  short c;

  c = *ReadBuf++ << 8;
     6d0:	8f820014 	lw	v0,20(gp)
/*
 * Get Huffman Table
 */
void
get_dht ()
{
     6d4:	afbf0034 	sw	ra,52(sp)
     6d8:	afbe0030 	sw	s8,48(sp)
     6dc:	afb7002c 	sw	s7,44(sp)
     6e0:	afb60028 	sw	s6,40(sp)
     6e4:	afb50024 	sw	s5,36(sp)
     6e8:	afb40020 	sw	s4,32(sp)
     6ec:	afb3001c 	sw	s3,28(sp)
     6f0:	afb20018 	sw	s2,24(sp)
     6f4:	afb10014 	sw	s1,20(sp)
     6f8:	afb00010 	sw	s0,16(sp)
short
read_word (void)
{
  short c;

  c = *ReadBuf++ << 8;
     6fc:	80510000 	lb	s1,0(v0)
  c |= *ReadBuf++;
     700:	90430001 	lbu	v1,1(v0)
short
read_word (void)
{
  short c;

  c = *ReadBuf++ << 8;
     704:	00118a00 	sll	s1,s1,0x8
  c |= *ReadBuf++;
     708:	02238825 	or	s1,s1,v1
  int index, i, count;
  int *p_xhtbl_bits;
  int *p_xhtbl_huffval;

  length = read_word ();
  length -= 2;
     70c:	2631fffe 	addiu	s1,s1,-2

  printf (" length = %d\n", length);
     710:	3c040000 	lui	a0,0x0
read_word (void)
{
  short c;

  c = *ReadBuf++ << 8;
  c |= *ReadBuf++;
     714:	24420002 	addiu	v0,v0,2
  int *p_xhtbl_huffval;

  length = read_word ();
  length -= 2;

  printf (" length = %d\n", length);
     718:	24840000 	addiu	a0,a0,0
     71c:	02202821 	addu	a1,s1,zero
     720:	0c000000 	jal	0 <read_byte>
     724:	af820014 	sw	v0,20(gp)

  if (length != out_length_get_dht[i_get_dht])
     728:	8f830000 	lw	v1,0(gp)
     72c:	3c020000 	lui	v0,0x0
     730:	00031880 	sll	v1,v1,0x2
     734:	24420000 	addiu	v0,v0,0
     738:	00621021 	addu	v0,v1,v0
     73c:	8c420000 	lw	v0,0(v0)
     740:	00000000 	sll	zero,zero,0x0
     744:	10510006 	beq	v0,s1,760 <get_dht+0x94>
     748:	2a220011 	slti	v0,s1,17
    {
        main_result++;
     74c:	8f820000 	lw	v0,0(gp)
     750:	00000000 	sll	zero,zero,0x0
     754:	24420001 	addiu	v0,v0,1
     758:	af820000 	sw	v0,0(gp)
    }

  while (length > 16)
     75c:	2a220011 	slti	v0,s1,17
     760:	14400080 	bnez	v0,964 <get_dht+0x298>
     764:	3c170000 	lui	s7,0x0
     768:	3c160000 	lui	s6,0x0
    {
      index = read_byte ();

      printf (" index = 0x%x\n", index);
     76c:	3c150000 	lui	s5,0x0
      if (index & 0x10)
	{
	  /* AC */
	  index -= 0x10;
	  p_xhtbl_bits = p_jinfo_ac_xhuff_tbl_bits[index];
	  p_xhtbl_huffval = p_jinfo_ac_xhuff_tbl_huffval[index];
     770:	3c1e0000 	lui	s8,0x0
	{
	  p_xhtbl_bits[i] = read_byte ();
	  count += p_xhtbl_bits[i];
	}

      printf (" count = %d\n", count);
     774:	3c140000 	lui	s4,0x0
     778:	26f70000 	addiu	s7,s7,0
     77c:	26d60000 	addiu	s6,s6,0

  while (length > 16)
    {
      index = read_byte ();

      printf (" index = 0x%x\n", index);
     780:	26b50000 	addiu	s5,s5,0
      if (index & 0x10)
	{
	  /* AC */
	  index -= 0x10;
	  p_xhtbl_bits = p_jinfo_ac_xhuff_tbl_bits[index];
	  p_xhtbl_huffval = p_jinfo_ac_xhuff_tbl_huffval[index];
     784:	27de0000 	addiu	s8,s8,0
	{
	  p_xhtbl_bits[i] = read_byte ();
	  count += p_xhtbl_bits[i];
	}

      printf (" count = %d\n", count);
     788:	26940000 	addiu	s4,s4,0
	{
        main_result++;
    }
      i_get_dht++;

      length -= 1 + 16;
     78c:	2413ffef 	addiu	s3,zero,-17
 *  Read from Buffer
 */
int
read_byte (void)
{
  return *ReadBuf++;
     790:	8f820014 	lw	v0,20(gp)

  while (length > 16)
    {
      index = read_byte ();

      printf (" index = 0x%x\n", index);
     794:	02a02021 	addu	a0,s5,zero
 *  Read from Buffer
 */
int
read_byte (void)
{
  return *ReadBuf++;
     798:	90500000 	lbu	s0,0(v0)
     79c:	24420001 	addiu	v0,v0,1

  while (length > 16)
    {
      index = read_byte ();

      printf (" index = 0x%x\n", index);
     7a0:	02002821 	addu	a1,s0,zero
     7a4:	0c000000 	jal	0 <read_byte>
     7a8:	af820014 	sw	v0,20(gp)

      if (index != out_index_get_dht[i_get_dht])
     7ac:	8f820000 	lw	v0,0(gp)
     7b0:	00000000 	sll	zero,zero,0x0
     7b4:	00021080 	sll	v0,v0,0x2
     7b8:	02e21021 	addu	v0,s7,v0
     7bc:	8c420000 	lw	v0,0(v0)
     7c0:	00000000 	sll	zero,zero,0x0
     7c4:	10500006 	beq	v0,s0,7e0 <get_dht+0x114>
     7c8:	32020010 	andi	v0,s0,0x10
	{
        main_result++;
     7cc:	8f820000 	lw	v0,0(gp)
     7d0:	00000000 	sll	zero,zero,0x0
     7d4:	24420001 	addiu	v0,v0,1
     7d8:	af820000 	sw	v0,0(gp)
}

      if (index & 0x10)
     7dc:	32020010 	andi	v0,s0,0x10
     7e0:	1040006c 	beqz	v0,994 <get_dht+0x2c8>
     7e4:	00101900 	sll	v1,s0,0x4
	{
	  /* AC */
	  index -= 0x10;
     7e8:	2610fff0 	addiu	s0,s0,-16
	  p_xhtbl_bits = p_jinfo_ac_xhuff_tbl_bits[index];
     7ec:	00101900 	sll	v1,s0,0x4
     7f0:	001011c0 	sll	v0,s0,0x7
	  p_xhtbl_huffval = p_jinfo_ac_xhuff_tbl_huffval[index];
     7f4:	00109080 	sll	s2,s0,0x2

      if (index & 0x10)
	{
	  /* AC */
	  index -= 0x10;
	  p_xhtbl_bits = p_jinfo_ac_xhuff_tbl_bits[index];
     7f8:	00621021 	addu	v0,v1,v0
	  p_xhtbl_huffval = p_jinfo_ac_xhuff_tbl_huffval[index];
     7fc:	00108280 	sll	s0,s0,0xa

      if (index & 0x10)
	{
	  /* AC */
	  index -= 0x10;
	  p_xhtbl_bits = p_jinfo_ac_xhuff_tbl_bits[index];
     800:	3c030000 	lui	v1,0x0
	  p_xhtbl_huffval = p_jinfo_ac_xhuff_tbl_huffval[index];
     804:	02509021 	addu	s2,s2,s0

      if (index & 0x10)
	{
	  /* AC */
	  index -= 0x10;
	  p_xhtbl_bits = p_jinfo_ac_xhuff_tbl_bits[index];
     808:	24630000 	addiu	v1,v1,0
     80c:	00621021 	addu	v0,v1,v0
	  p_xhtbl_huffval = p_jinfo_ac_xhuff_tbl_huffval[index];
     810:	03d29021 	addu	s2,s8,s2
 *  Read from Buffer
 */
int
read_byte (void)
{
  return *ReadBuf++;
     814:	8f830014 	lw	v1,20(gp)
	{
	  p_xhtbl_bits[i] = read_byte ();
	  count += p_xhtbl_bits[i];
	}

      printf (" count = %d\n", count);
     818:	02802021 	addu	a0,s4,zero
 *  Read from Buffer
 */
int
read_byte (void)
{
  return *ReadBuf++;
     81c:	90670000 	lbu	a3,0(v1)
     820:	24660010 	addiu	a2,v1,16

      count = 0;

      for (i = 1; i <= 16; i++)
	{
	  p_xhtbl_bits[i] = read_byte ();
     824:	ac470004 	sw	a3,4(v0)
 *  Read from Buffer
 */
int
read_byte (void)
{
  return *ReadBuf++;
     828:	90680001 	lbu	t0,1(v1)
     82c:	00000000 	sll	zero,zero,0x0

      count = 0;

      for (i = 1; i <= 16; i++)
	{
	  p_xhtbl_bits[i] = read_byte ();
     830:	ac480008 	sw	t0,8(v0)
 *  Read from Buffer
 */
int
read_byte (void)
{
  return *ReadBuf++;
     834:	90650002 	lbu	a1,2(v1)
      count = 0;

      for (i = 1; i <= 16; i++)
	{
	  p_xhtbl_bits[i] = read_byte ();
	  count += p_xhtbl_bits[i];
     838:	01078021 	addu	s0,t0,a3

      count = 0;

      for (i = 1; i <= 16; i++)
	{
	  p_xhtbl_bits[i] = read_byte ();
     83c:	ac45000c 	sw	a1,12(v0)
 *  Read from Buffer
 */
int
read_byte (void)
{
  return *ReadBuf++;
     840:	90670003 	lbu	a3,3(v1)
      count = 0;

      for (i = 1; i <= 16; i++)
	{
	  p_xhtbl_bits[i] = read_byte ();
	  count += p_xhtbl_bits[i];
     844:	02058021 	addu	s0,s0,a1

      count = 0;

      for (i = 1; i <= 16; i++)
	{
	  p_xhtbl_bits[i] = read_byte ();
     848:	ac470010 	sw	a3,16(v0)
 *  Read from Buffer
 */
int
read_byte (void)
{
  return *ReadBuf++;
     84c:	90650004 	lbu	a1,4(v1)
      count = 0;

      for (i = 1; i <= 16; i++)
	{
	  p_xhtbl_bits[i] = read_byte ();
	  count += p_xhtbl_bits[i];
     850:	02078021 	addu	s0,s0,a3

      count = 0;

      for (i = 1; i <= 16; i++)
	{
	  p_xhtbl_bits[i] = read_byte ();
     854:	ac450014 	sw	a1,20(v0)
 *  Read from Buffer
 */
int
read_byte (void)
{
  return *ReadBuf++;
     858:	90670005 	lbu	a3,5(v1)
      count = 0;

      for (i = 1; i <= 16; i++)
	{
	  p_xhtbl_bits[i] = read_byte ();
	  count += p_xhtbl_bits[i];
     85c:	02058021 	addu	s0,s0,a1

      count = 0;

      for (i = 1; i <= 16; i++)
	{
	  p_xhtbl_bits[i] = read_byte ();
     860:	ac470018 	sw	a3,24(v0)
 *  Read from Buffer
 */
int
read_byte (void)
{
  return *ReadBuf++;
     864:	90650006 	lbu	a1,6(v1)
      count = 0;

      for (i = 1; i <= 16; i++)
	{
	  p_xhtbl_bits[i] = read_byte ();
	  count += p_xhtbl_bits[i];
     868:	02078021 	addu	s0,s0,a3

      count = 0;

      for (i = 1; i <= 16; i++)
	{
	  p_xhtbl_bits[i] = read_byte ();
     86c:	ac45001c 	sw	a1,28(v0)
 *  Read from Buffer
 */
int
read_byte (void)
{
  return *ReadBuf++;
     870:	90670007 	lbu	a3,7(v1)
      count = 0;

      for (i = 1; i <= 16; i++)
	{
	  p_xhtbl_bits[i] = read_byte ();
	  count += p_xhtbl_bits[i];
     874:	02058021 	addu	s0,s0,a1

      count = 0;

      for (i = 1; i <= 16; i++)
	{
	  p_xhtbl_bits[i] = read_byte ();
     878:	ac470020 	sw	a3,32(v0)
 *  Read from Buffer
 */
int
read_byte (void)
{
  return *ReadBuf++;
     87c:	90650008 	lbu	a1,8(v1)
      count = 0;

      for (i = 1; i <= 16; i++)
	{
	  p_xhtbl_bits[i] = read_byte ();
	  count += p_xhtbl_bits[i];
     880:	02078021 	addu	s0,s0,a3

      count = 0;

      for (i = 1; i <= 16; i++)
	{
	  p_xhtbl_bits[i] = read_byte ();
     884:	ac450024 	sw	a1,36(v0)
 *  Read from Buffer
 */
int
read_byte (void)
{
  return *ReadBuf++;
     888:	90670009 	lbu	a3,9(v1)
      count = 0;

      for (i = 1; i <= 16; i++)
	{
	  p_xhtbl_bits[i] = read_byte ();
	  count += p_xhtbl_bits[i];
     88c:	02058021 	addu	s0,s0,a1

      count = 0;

      for (i = 1; i <= 16; i++)
	{
	  p_xhtbl_bits[i] = read_byte ();
     890:	ac470028 	sw	a3,40(v0)
 *  Read from Buffer
 */
int
read_byte (void)
{
  return *ReadBuf++;
     894:	9065000a 	lbu	a1,10(v1)
      count = 0;

      for (i = 1; i <= 16; i++)
	{
	  p_xhtbl_bits[i] = read_byte ();
	  count += p_xhtbl_bits[i];
     898:	02078021 	addu	s0,s0,a3

      count = 0;

      for (i = 1; i <= 16; i++)
	{
	  p_xhtbl_bits[i] = read_byte ();
     89c:	ac45002c 	sw	a1,44(v0)
 *  Read from Buffer
 */
int
read_byte (void)
{
  return *ReadBuf++;
     8a0:	9067000b 	lbu	a3,11(v1)
      count = 0;

      for (i = 1; i <= 16; i++)
	{
	  p_xhtbl_bits[i] = read_byte ();
	  count += p_xhtbl_bits[i];
     8a4:	02058021 	addu	s0,s0,a1

      count = 0;

      for (i = 1; i <= 16; i++)
	{
	  p_xhtbl_bits[i] = read_byte ();
     8a8:	ac470030 	sw	a3,48(v0)
 *  Read from Buffer
 */
int
read_byte (void)
{
  return *ReadBuf++;
     8ac:	9065000c 	lbu	a1,12(v1)
      count = 0;

      for (i = 1; i <= 16; i++)
	{
	  p_xhtbl_bits[i] = read_byte ();
	  count += p_xhtbl_bits[i];
     8b0:	02078021 	addu	s0,s0,a3

      count = 0;

      for (i = 1; i <= 16; i++)
	{
	  p_xhtbl_bits[i] = read_byte ();
     8b4:	ac450034 	sw	a1,52(v0)
 *  Read from Buffer
 */
int
read_byte (void)
{
  return *ReadBuf++;
     8b8:	9067000d 	lbu	a3,13(v1)
      count = 0;

      for (i = 1; i <= 16; i++)
	{
	  p_xhtbl_bits[i] = read_byte ();
	  count += p_xhtbl_bits[i];
     8bc:	02058021 	addu	s0,s0,a1

      count = 0;

      for (i = 1; i <= 16; i++)
	{
	  p_xhtbl_bits[i] = read_byte ();
     8c0:	ac470038 	sw	a3,56(v0)
 *  Read from Buffer
 */
int
read_byte (void)
{
  return *ReadBuf++;
     8c4:	9065000e 	lbu	a1,14(v1)
      count = 0;

      for (i = 1; i <= 16; i++)
	{
	  p_xhtbl_bits[i] = read_byte ();
	  count += p_xhtbl_bits[i];
     8c8:	02073821 	addu	a3,s0,a3

      count = 0;

      for (i = 1; i <= 16; i++)
	{
	  p_xhtbl_bits[i] = read_byte ();
     8cc:	ac45003c 	sw	a1,60(v0)
 *  Read from Buffer
 */
int
read_byte (void)
{
  return *ReadBuf++;
     8d0:	9063000f 	lbu	v1,15(v1)
      count = 0;

      for (i = 1; i <= 16; i++)
	{
	  p_xhtbl_bits[i] = read_byte ();
	  count += p_xhtbl_bits[i];
     8d4:	00e52821 	addu	a1,a3,a1
     8d8:	00a38021 	addu	s0,a1,v1
	}

      printf (" count = %d\n", count);
     8dc:	02002821 	addu	a1,s0,zero
 *  Read from Buffer
 */
int
read_byte (void)
{
  return *ReadBuf++;
     8e0:	af860014 	sw	a2,20(gp)
	{
	  p_xhtbl_bits[i] = read_byte ();
	  count += p_xhtbl_bits[i];
	}

      printf (" count = %d\n", count);
     8e4:	0c000000 	jal	0 <read_byte>
     8e8:	ac430040 	sw	v1,64(v0)

      if (count != out_count_get_dht[i_get_dht])
     8ec:	8f820000 	lw	v0,0(gp)
     8f0:	00000000 	sll	zero,zero,0x0
     8f4:	00021880 	sll	v1,v0,0x2
     8f8:	02c31821 	addu	v1,s6,v1
     8fc:	8c630000 	lw	v1,0(v1)
     900:	00000000 	sll	zero,zero,0x0
     904:	10700005 	beq	v1,s0,91c <get_dht+0x250>
     908:	00000000 	sll	zero,zero,0x0
	{
        main_result++;
     90c:	8f830000 	lw	v1,0(gp)
     910:	00000000 	sll	zero,zero,0x0
     914:	24630001 	addiu	v1,v1,1
     918:	af830000 	sw	v1,0(gp)
    }
      i_get_dht++;
     91c:	24420001 	addiu	v0,v0,1

      length -= 1 + 16;

      for (i = 0; i < count; i++)
     920:	1200000b 	beqz	s0,950 <get_dht+0x284>
     924:	af820000 	sw	v0,0(gp)
     928:	8f840014 	lw	a0,20(gp)
     92c:	00001021 	addu	v0,zero,zero

/*
 * Get Huffman Table
 */
void
get_dht ()
     930:	00821821 	addu	v1,a0,v0
 *  Read from Buffer
 */
int
read_byte (void)
{
  return *ReadBuf++;
     934:	90630000 	lbu	v1,0(v1)
    }
      i_get_dht++;

      length -= 1 + 16;

      for (i = 0; i < count; i++)
     938:	24420001 	addiu	v0,v0,1
 *  Read from Buffer
 */
int
read_byte (void)
{
  return *ReadBuf++;
     93c:	ae430000 	sw	v1,0(s2)
    }
      i_get_dht++;

      length -= 1 + 16;

      for (i = 0; i < count; i++)
     940:	1450fffb 	bne	v0,s0,930 <get_dht+0x264>
     944:	26520004 	addiu	s2,s2,4
     948:	00902021 	addu	a0,a0,s0
     94c:	af840014 	sw	a0,20(gp)
	{
        main_result++;
    }
      i_get_dht++;

      length -= 1 + 16;
     950:	02708023 	subu	s0,s3,s0
      for (i = 0; i < count; i++)
	{
	  p_xhtbl_huffval[i] = read_byte ();
	}

      length -= count;
     954:	02308821 	addu	s1,s1,s0
  if (length != out_length_get_dht[i_get_dht])
    {
        main_result++;
    }

  while (length > 16)
     958:	2a220011 	slti	v0,s1,17
     95c:	1040ff8c 	beqz	v0,790 <get_dht+0xc4>
     960:	00000000 	sll	zero,zero,0x0
	  p_xhtbl_huffval[i] = read_byte ();
	}

      length -= count;
    }
}
     964:	8fbf0034 	lw	ra,52(sp)
     968:	8fbe0030 	lw	s8,48(sp)
     96c:	8fb7002c 	lw	s7,44(sp)
     970:	8fb60028 	lw	s6,40(sp)
     974:	8fb50024 	lw	s5,36(sp)
     978:	8fb40020 	lw	s4,32(sp)
     97c:	8fb3001c 	lw	s3,28(sp)
     980:	8fb20018 	lw	s2,24(sp)
     984:	8fb10014 	lw	s1,20(sp)
     988:	8fb00010 	lw	s0,16(sp)
     98c:	03e00008 	jr	ra
     990:	27bd0038 	addiu	sp,sp,56
	  p_xhtbl_huffval = p_jinfo_ac_xhuff_tbl_huffval[index];
	}
      else
	{
	  /* DC */
	  p_xhtbl_bits = p_jinfo_dc_xhuff_tbl_bits[index];
     994:	001011c0 	sll	v0,s0,0x7
     998:	00621021 	addu	v0,v1,v0
     99c:	3c030000 	lui	v1,0x0
     9a0:	24630000 	addiu	v1,v1,0
	  p_xhtbl_huffval = p_jinfo_dc_xhuff_tbl_huffval[index];
     9a4:	00109080 	sll	s2,s0,0x2
	  p_xhtbl_huffval = p_jinfo_ac_xhuff_tbl_huffval[index];
	}
      else
	{
	  /* DC */
	  p_xhtbl_bits = p_jinfo_dc_xhuff_tbl_bits[index];
     9a8:	00621021 	addu	v0,v1,v0
	  p_xhtbl_huffval = p_jinfo_dc_xhuff_tbl_huffval[index];
     9ac:	00108280 	sll	s0,s0,0xa
     9b0:	3c030000 	lui	v1,0x0
     9b4:	02509021 	addu	s2,s2,s0
     9b8:	24630000 	addiu	v1,v1,0
     9bc:	08000205 	j	814 <get_dht+0x148>
     9c0:	00729021 	addu	s2,v1,s2

000009c4 <get_dqt>:
}


void
get_dqt ()
{
     9c4:	27bdffc8 	addiu	sp,sp,-56
short
read_word (void)
{
  short c;

  c = *ReadBuf++ << 8;
     9c8:	8f820014 	lw	v0,20(gp)
}


void
get_dqt ()
{
     9cc:	afbf0034 	sw	ra,52(sp)
     9d0:	afbe0030 	sw	s8,48(sp)
     9d4:	afb7002c 	sw	s7,44(sp)
     9d8:	afb60028 	sw	s6,40(sp)
     9dc:	afb50024 	sw	s5,36(sp)
     9e0:	afb40020 	sw	s4,32(sp)
     9e4:	afb3001c 	sw	s3,28(sp)
     9e8:	afb20018 	sw	s2,24(sp)
     9ec:	afb10014 	sw	s1,20(sp)
     9f0:	afb00010 	sw	s0,16(sp)
short
read_word (void)
{
  short c;

  c = *ReadBuf++ << 8;
     9f4:	80530000 	lb	s3,0(v0)
  c |= *ReadBuf++;
     9f8:	90430001 	lbu	v1,1(v0)
short
read_word (void)
{
  short c;

  c = *ReadBuf++ << 8;
     9fc:	00139a00 	sll	s3,s3,0x8
  c |= *ReadBuf++;
     a00:	02639825 	or	s3,s3,v1
  int prec, num, i;
  unsigned int tmp;
  unsigned int *p_quant_tbl;

  length = read_word ();
  length -= 2;
     a04:	2673fffe 	addiu	s3,s3,-2

  printf (" length = %d\n", length);
     a08:	3c040000 	lui	a0,0x0
read_word (void)
{
  short c;

  c = *ReadBuf++ << 8;
  c |= *ReadBuf++;
     a0c:	24420002 	addiu	v0,v0,2
  unsigned int *p_quant_tbl;

  length = read_word ();
  length -= 2;

  printf (" length = %d\n", length);
     a10:	24840000 	addiu	a0,a0,0
     a14:	02602821 	addu	a1,s3,zero
     a18:	0c000000 	jal	0 <read_byte>
     a1c:	af820014 	sw	v0,20(gp)

  if (length != out_length_get_dqt[i_get_dqt])
     a20:	8f820000 	lw	v0,0(gp)
     a24:	27830000 	addiu	v1,gp,0
     a28:	00021080 	sll	v0,v0,0x2
     a2c:	00621021 	addu	v0,v1,v0
     a30:	8c420000 	lw	v0,0(v0)
     a34:	00000000 	sll	zero,zero,0x0
     a38:	10530005 	beq	v0,s3,a50 <get_dqt+0x8c>
     a3c:	00000000 	sll	zero,zero,0x0
    {
        main_result++;
     a40:	8f820000 	lw	v0,0(gp)
     a44:	00000000 	sll	zero,zero,0x0
     a48:	24420001 	addiu	v0,v0,1
     a4c:	af820000 	sw	v0,0(gp)
    }

  while (length > 0)
     a50:	1a600041 	blez	s3,b58 <get_dqt+0x194>
     a54:	3c1e0000 	lui	s8,0x0
      /* Precision 0:8bit, 1:16bit */
      prec = num >> 4;
      /* Table Number */
      num &= 0x0f;

      printf (" prec = %d\n", prec);
     a58:	3c150000 	lui	s5,0x0
      printf (" num  = %d\n", num);
     a5c:	3c140000 	lui	s4,0x0
    }
}


void
get_dqt ()
     a60:	3c100000 	lui	s0,0x0
  if (length != out_length_get_dqt[i_get_dqt])
    {
        main_result++;
    }

  while (length > 0)
     a64:	8f820014 	lw	v0,20(gp)
     a68:	27de0000 	addiu	s8,s8,0
     a6c:	27970000 	addiu	s7,gp,0
     a70:	27960000 	addiu	s6,gp,0
      /* Precision 0:8bit, 1:16bit */
      prec = num >> 4;
      /* Table Number */
      num &= 0x0f;

      printf (" prec = %d\n", prec);
     a74:	26b50000 	addiu	s5,s5,0
      printf (" num  = %d\n", num);
     a78:	26940000 	addiu	s4,s4,0
    }
}


void
get_dqt ()
     a7c:	26100100 	addiu	s0,s0,256
 *  Read from Buffer
 */
int
read_byte (void)
{
  return *ReadBuf++;
     a80:	90520000 	lbu	s2,0(v0)
      /* Precision 0:8bit, 1:16bit */
      prec = num >> 4;
      /* Table Number */
      num &= 0x0f;

      printf (" prec = %d\n", prec);
     a84:	02a02021 	addu	a0,s5,zero

  while (length > 0)
    {
      num = read_byte ();
      /* Precision 0:8bit, 1:16bit */
      prec = num >> 4;
     a88:	00128903 	sra	s1,s2,0x4
 *  Read from Buffer
 */
int
read_byte (void)
{
  return *ReadBuf++;
     a8c:	24420001 	addiu	v0,v0,1
      /* Precision 0:8bit, 1:16bit */
      prec = num >> 4;
      /* Table Number */
      num &= 0x0f;

      printf (" prec = %d\n", prec);
     a90:	02202821 	addu	a1,s1,zero
    {
      num = read_byte ();
      /* Precision 0:8bit, 1:16bit */
      prec = num >> 4;
      /* Table Number */
      num &= 0x0f;
     a94:	3252000f 	andi	s2,s2,0xf

      printf (" prec = %d\n", prec);
     a98:	0c000000 	jal	0 <read_byte>
     a9c:	af820014 	sw	v0,20(gp)
      printf (" num  = %d\n", num);
     aa0:	02802021 	addu	a0,s4,zero
     aa4:	0c000000 	jal	0 <read_byte>
     aa8:	02402821 	addu	a1,s2,zero

      if (prec != out_prec_get_dht[i_get_dqt])
     aac:	8f820000 	lw	v0,0(gp)
     ab0:	00000000 	sll	zero,zero,0x0
     ab4:	00021880 	sll	v1,v0,0x2
     ab8:	02e32021 	addu	a0,s7,v1
     abc:	8c840000 	lw	a0,0(a0)
     ac0:	00000000 	sll	zero,zero,0x0
     ac4:	10910005 	beq	a0,s1,adc <get_dqt+0x118>
     ac8:	00000000 	sll	zero,zero,0x0
	{
        main_result++;
     acc:	8f840000 	lw	a0,0(gp)
     ad0:	00000000 	sll	zero,zero,0x0
     ad4:	24840001 	addiu	a0,a0,1
     ad8:	af840000 	sw	a0,0(gp)
    }
      if (num != out_num_get_dht[i_get_dqt])
     adc:	02c31821 	addu	v1,s6,v1
     ae0:	8c630000 	lw	v1,0(v1)
     ae4:	00000000 	sll	zero,zero,0x0
     ae8:	10720005 	beq	v1,s2,b00 <get_dqt+0x13c>
     aec:	00000000 	sll	zero,zero,0x0
	{
        main_result++;
     af0:	8f830000 	lw	v1,0(gp)
     af4:	00000000 	sll	zero,zero,0x0
     af8:	24630001 	addiu	v1,v1,1
     afc:	af830000 	sw	v1,0(gp)
    }
      i_get_dqt++;

      p_quant_tbl = &p_jinfo_quant_tbl_quantval[num][DCTSIZE2];
     b00:	26450001 	addiu	a1,s2,1
    }
      if (num != out_num_get_dht[i_get_dqt])
	{
        main_result++;
    }
      i_get_dqt++;
     b04:	24420001 	addiu	v0,v0,1

      p_quant_tbl = &p_jinfo_quant_tbl_quantval[num][DCTSIZE2];
     b08:	00052a00 	sll	a1,a1,0x8
    }
      if (num != out_num_get_dht[i_get_dqt])
	{
        main_result++;
    }
      i_get_dqt++;
     b0c:	af820000 	sw	v0,0(gp)

      p_quant_tbl = &p_jinfo_quant_tbl_quantval[num][DCTSIZE2];
     b10:	8f820014 	lw	v0,20(gp)
     b14:	1620001c 	bnez	s1,b88 <get_dqt+0x1c4>
     b18:	03c52821 	addu	a1,s8,a1
     b1c:	3c030000 	lui	v1,0x0
     b20:	00402021 	addu	a0,v0,zero
     b24:	24630000 	addiu	v1,v1,0
	{
	  if (prec)
	    tmp = read_word ();
	  else
	    tmp = read_byte ();
	  p_quant_tbl[izigzag_index[i]] = (unsigned short) tmp;
     b28:	8c660000 	lw	a2,0(v1)
     b2c:	90870000 	lbu	a3,0(a0)
     b30:	00063080 	sll	a2,a2,0x2
     b34:	00a63021 	addu	a2,a1,a2
     b38:	24630004 	addiu	v1,v1,4
     b3c:	acc70000 	sw	a3,0(a2)
        main_result++;
    }
      i_get_dqt++;

      p_quant_tbl = &p_jinfo_quant_tbl_quantval[num][DCTSIZE2];
      for (i = 0; i < DCTSIZE2; i++)
     b40:	1470fff9 	bne	v1,s0,b28 <get_dqt+0x164>
     b44:	24840001 	addiu	a0,a0,1
	  p_quant_tbl[izigzag_index[i]] = (unsigned short) tmp;
	}

      length -= DCTSIZE2 + 1;
      if (prec)
	length -= DCTSIZE2;
     b48:	24420040 	addiu	v0,v0,64
	  else
	    tmp = read_byte ();
	  p_quant_tbl[izigzag_index[i]] = (unsigned short) tmp;
	}

      length -= DCTSIZE2 + 1;
     b4c:	2673ffbf 	addiu	s3,s3,-65
  if (length != out_length_get_dqt[i_get_dqt])
    {
        main_result++;
    }

  while (length > 0)
     b50:	1e60ffcb 	bgtz	s3,a80 <get_dqt+0xbc>
     b54:	af820014 	sw	v0,20(gp)

      length -= DCTSIZE2 + 1;
      if (prec)
	length -= DCTSIZE2;
    }
}
     b58:	8fbf0034 	lw	ra,52(sp)
     b5c:	8fbe0030 	lw	s8,48(sp)
     b60:	8fb7002c 	lw	s7,44(sp)
     b64:	8fb60028 	lw	s6,40(sp)
     b68:	8fb50024 	lw	s5,36(sp)
     b6c:	8fb40020 	lw	s4,32(sp)
     b70:	8fb3001c 	lw	s3,28(sp)
     b74:	8fb20018 	lw	s2,24(sp)
     b78:	8fb10014 	lw	s1,20(sp)
     b7c:	8fb00010 	lw	s0,16(sp)
     b80:	03e00008 	jr	ra
     b84:	27bd0038 	addiu	sp,sp,56
        main_result++;
    }
      i_get_dqt++;

      p_quant_tbl = &p_jinfo_quant_tbl_quantval[num][DCTSIZE2];
      for (i = 0; i < DCTSIZE2; i++)
     b88:	3c030000 	lui	v1,0x0
     b8c:	00402021 	addu	a0,v0,zero
     b90:	24630000 	addiu	v1,v1,0
short
read_word (void)
{
  short c;

  c = *ReadBuf++ << 8;
     b94:	80870000 	lb	a3,0(a0)
  c |= *ReadBuf++;
     b98:	90880001 	lbu	t0,1(a0)
	{
	  if (prec)
	    tmp = read_word ();
	  else
	    tmp = read_byte ();
	  p_quant_tbl[izigzag_index[i]] = (unsigned short) tmp;
     b9c:	8c660000 	lw	a2,0(v1)
short
read_word (void)
{
  short c;

  c = *ReadBuf++ << 8;
     ba0:	00073a00 	sll	a3,a3,0x8
	{
	  if (prec)
	    tmp = read_word ();
	  else
	    tmp = read_byte ();
	  p_quant_tbl[izigzag_index[i]] = (unsigned short) tmp;
     ba4:	00063080 	sll	a2,a2,0x2

      p_quant_tbl = &p_jinfo_quant_tbl_quantval[num][DCTSIZE2];
      for (i = 0; i < DCTSIZE2; i++)
	{
	  if (prec)
	    tmp = read_word ();
     ba8:	00e83825 	or	a3,a3,t0
	  else
	    tmp = read_byte ();
	  p_quant_tbl[izigzag_index[i]] = (unsigned short) tmp;
     bac:	00a63021 	addu	a2,a1,a2
     bb0:	30e7ffff 	andi	a3,a3,0xffff
     bb4:	24630004 	addiu	v1,v1,4
     bb8:	acc70000 	sw	a3,0(a2)
        main_result++;
    }
      i_get_dqt++;

      p_quant_tbl = &p_jinfo_quant_tbl_quantval[num][DCTSIZE2];
      for (i = 0; i < DCTSIZE2; i++)
     bbc:	1470fff5 	bne	v1,s0,b94 <get_dqt+0x1d0>
     bc0:	24840002 	addiu	a0,a0,2
     bc4:	24420080 	addiu	v0,v0,128
	  p_quant_tbl[izigzag_index[i]] = (unsigned short) tmp;
	}

      length -= DCTSIZE2 + 1;
      if (prec)
	length -= DCTSIZE2;
     bc8:	2673ff7f 	addiu	s3,s3,-129
  if (length != out_length_get_dqt[i_get_dqt])
    {
        main_result++;
    }

  while (length > 0)
     bcc:	1e60ffac 	bgtz	s3,a80 <get_dqt+0xbc>
     bd0:	af820014 	sw	v0,20(gp)
     bd4:	080002d6 	j	b58 <get_dqt+0x194>
     bd8:	00000000 	sll	zero,zero,0x0

00000bdc <read_markers.clone.2>:
}



void
read_markers (unsigned char *buf)
     bdc:	27bdffd0 	addiu	sp,sp,-48
{
  int unread_marker;
  int sow_SOI;

  ReadBuf = buf;
     be0:	3c020000 	lui	v0,0x0
}



void
read_markers (unsigned char *buf)
     be4:	afb50024 	sw	s5,36(sp)
     be8:	afb40020 	sw	s4,32(sp)
     bec:	afb3001c 	sw	s3,28(sp)
{
  int unread_marker;
  int sow_SOI;

  ReadBuf = buf;
     bf0:	24420000 	addiu	v0,v0,0
      else
	{
	  unread_marker = next_marker ();
	}

      printf ("\nmarker = 0x%x\n", unread_marker);
     bf4:	3c140000 	lui	s4,0x0

      if (unread_marker != out_unread_marker[i_marker++])
     bf8:	3c130000 	lui	s3,0x0
	{
		main_result++;
	}


      switch (unread_marker)
     bfc:	3c150000 	lui	s5,0x0
}



void
read_markers (unsigned char *buf)
     c00:	afb60028 	sw	s6,40(sp)
     c04:	afb20018 	sw	s2,24(sp)
     c08:	afb00010 	sw	s0,16(sp)
     c0c:	afbf002c 	sw	ra,44(sp)
     c10:	afb10014 	sw	s1,20(sp)
{
  int unread_marker;
  int sow_SOI;

  ReadBuf = buf;
     c14:	af820014 	sw	v0,20(gp)

  sow_SOI = 0;
     c18:	00009021 	addu	s2,zero,zero

  for (;;)
    {
      c = read_byte ();

      while (c != 0xff)
     c1c:	241000ff 	addiu	s0,zero,255
{
  int c1, c2;
  c1 = read_byte ();
  c2 = read_byte ();

  if (c1 != 0xFF || c2 != M_SOI)
     c20:	241600d8 	addiu	s6,zero,216
      else
	{
	  unread_marker = next_marker ();
	}

      printf ("\nmarker = 0x%x\n", unread_marker);
     c24:	26940000 	addiu	s4,s4,0

      if (unread_marker != out_unread_marker[i_marker++])
     c28:	26730000 	addiu	s3,s3,0
	{
		main_result++;
	}


      switch (unread_marker)
     c2c:	26b50000 	addiu	s5,s5,0
  unread_marker = 0;

  /* Read the head of the marker */
  for (;;)
    {
      if (!sow_SOI)
     c30:	16400025 	bnez	s2,cc8 <read_markers.clone.2+0xec>
     c34:	24440002 	addiu	a0,v0,2
 *  Read from Buffer
 */
int
read_byte (void)
{
  return *ReadBuf++;
     c38:	90430000 	lbu	v1,0(v0)
     c3c:	90420001 	lbu	v0,1(v0)
{
  int c1, c2;
  c1 = read_byte ();
  c2 = read_byte ();

  if (c1 != 0xFF || c2 != M_SOI)
     c40:	14700054 	bne	v1,s0,d94 <read_markers.clone.2+0x1b8>
     c44:	af840014 	sw	a0,20(gp)
     c48:	14560052 	bne	v0,s6,d94 <read_markers.clone.2+0x1b8>
     c4c:	241100d8 	addiu	s1,zero,216
      else
	{
	  unread_marker = next_marker ();
	}

      printf ("\nmarker = 0x%x\n", unread_marker);
     c50:	02802021 	addu	a0,s4,zero
     c54:	0c000000 	jal	0 <read_byte>
     c58:	02202821 	addu	a1,s1,zero

      if (unread_marker != out_unread_marker[i_marker++])
     c5c:	8f820000 	lw	v0,0(gp)
     c60:	00000000 	sll	zero,zero,0x0
     c64:	00021880 	sll	v1,v0,0x2
     c68:	00731821 	addu	v1,v1,s3
     c6c:	8c630000 	lw	v1,0(v1)
     c70:	24420001 	addiu	v0,v0,1
     c74:	12230005 	beq	s1,v1,c8c <read_markers.clone.2+0xb0>
     c78:	af820000 	sw	v0,0(gp)
	{
		main_result++;
     c7c:	8f820000 	lw	v0,0(gp)
     c80:	00000000 	sll	zero,zero,0x0
     c84:	24420001 	addiu	v0,v0,1
     c88:	af820000 	sw	v0,0(gp)
	}


      switch (unread_marker)
     c8c:	2631ff40 	addiu	s1,s1,-192
     c90:	2e22001c 	sltiu	v0,s1,28
     c94:	10400019 	beqz	v0,cfc <read_markers.clone.2+0x120>
     c98:	00118880 	sll	s1,s1,0x2
     c9c:	02b18821 	addu	s1,s5,s1
     ca0:	8e220000 	lw	v0,0(s1)
     ca4:	00000000 	sll	zero,zero,0x0
     ca8:	00400008 	jr	v0
     cac:	00000000 	sll	zero,zero,0x0
 *  Read from Buffer
 */
int
read_byte (void)
{
  return *ReadBuf++;
     cb0:	90510000 	lbu	s1,0(v0)
     cb4:	00000000 	sll	zero,zero,0x0

      do
	{
	  c = read_byte ();
	}
      while (c == 0xff);
     cb8:	1230fffd 	beq	s1,s0,cb0 <read_markers.clone.2+0xd4>
     cbc:	24420001 	addiu	v0,v0,1
      if (c != 0)
     cc0:	1620000b 	bnez	s1,cf0 <read_markers.clone.2+0x114>
     cc4:	00000000 	sll	zero,zero,0x0
 *  Read from Buffer
 */
int
read_byte (void)
{
  return *ReadBuf++;
     cc8:	90430000 	lbu	v1,0(v0)
     ccc:	00000000 	sll	zero,zero,0x0

  for (;;)
    {
      c = read_byte ();

      while (c != 0xff)
     cd0:	1070fff7 	beq	v1,s0,cb0 <read_markers.clone.2+0xd4>
     cd4:	24420001 	addiu	v0,v0,1
 *  Read from Buffer
 */
int
read_byte (void)
{
  return *ReadBuf++;
     cd8:	90430000 	lbu	v1,0(v0)
     cdc:	00000000 	sll	zero,zero,0x0

  for (;;)
    {
      c = read_byte ();

      while (c != 0xff)
     ce0:	1470fff9 	bne	v1,s0,cc8 <read_markers.clone.2+0xec>
     ce4:	24420001 	addiu	v0,v0,1
     ce8:	0800032c 	j	cb0 <read_markers.clone.2+0xd4>
     cec:	00000000 	sll	zero,zero,0x0
      do
	{
	  c = read_byte ();
	}
      while (c == 0xff);
      if (c != 0)
     cf0:	08000314 	j	c50 <read_markers.clone.2+0x74>
     cf4:	af820014 	sw	v0,20(gp)


      switch (unread_marker)
	{
	case M_SOI:		/* Start of Image */
	  sow_SOI = 1;
     cf8:	24120001 	addiu	s2,zero,1
read_markers (unsigned char *buf)
{
  int unread_marker;
  int sow_SOI;

  ReadBuf = buf;
     cfc:	8f820014 	lw	v0,20(gp)
     d00:	0800030c 	j	c30 <read_markers.clone.2+0x54>
     d04:	00000000 	sll	zero,zero,0x0

	case M_EOI:
	  return;
	}
    }
}
     d08:	8fbf002c 	lw	ra,44(sp)
     d0c:	8fb60028 	lw	s6,40(sp)
     d10:	8fb50024 	lw	s5,36(sp)
     d14:	8fb40020 	lw	s4,32(sp)
     d18:	8fb3001c 	lw	s3,28(sp)
     d1c:	8fb20018 	lw	s2,24(sp)
     d20:	8fb10014 	lw	s1,20(sp)
     d24:	8fb00010 	lw	s0,16(sp)
	case M_SOF0:		/* Baseline DCT ( Huffman ) */
	  get_sof ();
	  break;

	case M_SOS:		/* Start of Scan ( Head of Compressed Data ) */
	  get_sos ();
     d28:	08000000 	j	0 <read_byte>
     d2c:	27bd0030 	addiu	sp,sp,48

	case M_EOI:
	  return;
	}
    }
}
     d30:	8fbf002c 	lw	ra,44(sp)
     d34:	8fb60028 	lw	s6,40(sp)
     d38:	8fb50024 	lw	s5,36(sp)
     d3c:	8fb40020 	lw	s4,32(sp)
     d40:	8fb3001c 	lw	s3,28(sp)
     d44:	8fb20018 	lw	s2,24(sp)
     d48:	8fb10014 	lw	s1,20(sp)
     d4c:	8fb00010 	lw	s0,16(sp)
     d50:	03e00008 	jr	ra
     d54:	27bd0030 	addiu	sp,sp,48
	case M_DHT:
	  get_dht ();
	  break;

	case M_DQT:
	  get_dqt ();
     d58:	0c000000 	jal	0 <read_byte>
     d5c:	00000000 	sll	zero,zero,0x0
read_markers (unsigned char *buf)
{
  int unread_marker;
  int sow_SOI;

  ReadBuf = buf;
     d60:	8f820014 	lw	v0,20(gp)
     d64:	0800030c 	j	c30 <read_markers.clone.2+0x54>
     d68:	00000000 	sll	zero,zero,0x0
	case M_SOI:		/* Start of Image */
	  sow_SOI = 1;
	  break;

	case M_SOF0:		/* Baseline DCT ( Huffman ) */
	  get_sof ();
     d6c:	0c000000 	jal	0 <read_byte>
     d70:	00000000 	sll	zero,zero,0x0
read_markers (unsigned char *buf)
{
  int unread_marker;
  int sow_SOI;

  ReadBuf = buf;
     d74:	8f820014 	lw	v0,20(gp)
     d78:	0800030c 	j	c30 <read_markers.clone.2+0x54>
     d7c:	00000000 	sll	zero,zero,0x0
	case M_SOS:		/* Start of Scan ( Head of Compressed Data ) */
	  get_sos ();
	  return;

	case M_DHT:
	  get_dht ();
     d80:	0c000000 	jal	0 <read_byte>
     d84:	00000000 	sll	zero,zero,0x0
read_markers (unsigned char *buf)
{
  int unread_marker;
  int sow_SOI;

  ReadBuf = buf;
     d88:	8f820014 	lw	v0,20(gp)
     d8c:	0800030c 	j	c30 <read_markers.clone.2+0x54>
     d90:	00000000 	sll	zero,zero,0x0
  c1 = read_byte ();
  c2 = read_byte ();

  if (c1 != 0xFF || c2 != M_SOI)
    {
      main_result++;
     d94:	8f820000 	lw	v0,0(gp)
      printf ("Not Jpeg File!\n");
     d98:	3c040000 	lui	a0,0x0
  c1 = read_byte ();
  c2 = read_byte ();

  if (c1 != 0xFF || c2 != M_SOI)
    {
      main_result++;
     d9c:	24420001 	addiu	v0,v0,1
      printf ("Not Jpeg File!\n");
     da0:	24840000 	addiu	a0,a0,0
     da4:	0c000000 	jal	0 <read_byte>
     da8:	af820000 	sw	v0,0(gp)
      EXIT;
     dac:	0c000000 	jal	0 <read_byte>
     db0:	00002021 	addu	a0,zero,zero

00000db4 <read_markers>:



void
read_markers (unsigned char *buf)
{
     db4:	27bdffd0 	addiu	sp,sp,-48
     db8:	afb50024 	sw	s5,36(sp)
     dbc:	afb40020 	sw	s4,32(sp)
     dc0:	afb3001c 	sw	s3,28(sp)
      else
	{
	  unread_marker = next_marker ();
	}

      printf ("\nmarker = 0x%x\n", unread_marker);
     dc4:	3c140000 	lui	s4,0x0

      if (unread_marker != out_unread_marker[i_marker++])
     dc8:	3c130000 	lui	s3,0x0
	{
		main_result++;
	}


      switch (unread_marker)
     dcc:	3c150000 	lui	s5,0x0



void
read_markers (unsigned char *buf)
{
     dd0:	afb60028 	sw	s6,40(sp)
     dd4:	afb20018 	sw	s2,24(sp)
     dd8:	afb00010 	sw	s0,16(sp)
     ddc:	afbf002c 	sw	ra,44(sp)
     de0:	afb10014 	sw	s1,20(sp)
  int unread_marker;
  int sow_SOI;

  ReadBuf = buf;
     de4:	af840014 	sw	a0,20(gp)

  sow_SOI = 0;
     de8:	00009021 	addu	s2,zero,zero

  for (;;)
    {
      c = read_byte ();

      while (c != 0xff)
     dec:	241000ff 	addiu	s0,zero,255
{
  int c1, c2;
  c1 = read_byte ();
  c2 = read_byte ();

  if (c1 != 0xFF || c2 != M_SOI)
     df0:	241600d8 	addiu	s6,zero,216
      else
	{
	  unread_marker = next_marker ();
	}

      printf ("\nmarker = 0x%x\n", unread_marker);
     df4:	26940000 	addiu	s4,s4,0

      if (unread_marker != out_unread_marker[i_marker++])
     df8:	26730000 	addiu	s3,s3,0
	{
		main_result++;
	}


      switch (unread_marker)
     dfc:	26b50070 	addiu	s5,s5,112
  unread_marker = 0;

  /* Read the head of the marker */
  for (;;)
    {
      if (!sow_SOI)
     e00:	16400025 	bnez	s2,e98 <read_markers+0xe4>
     e04:	24850002 	addiu	a1,a0,2
 *  Read from Buffer
 */
int
read_byte (void)
{
  return *ReadBuf++;
     e08:	90830000 	lbu	v1,0(a0)
     e0c:	90820001 	lbu	v0,1(a0)
{
  int c1, c2;
  c1 = read_byte ();
  c2 = read_byte ();

  if (c1 != 0xFF || c2 != M_SOI)
     e10:	14700054 	bne	v1,s0,f64 <read_markers+0x1b0>
     e14:	af850014 	sw	a1,20(gp)
     e18:	14560052 	bne	v0,s6,f64 <read_markers+0x1b0>
     e1c:	241100d8 	addiu	s1,zero,216
      else
	{
	  unread_marker = next_marker ();
	}

      printf ("\nmarker = 0x%x\n", unread_marker);
     e20:	02802021 	addu	a0,s4,zero
     e24:	0c000000 	jal	0 <read_byte>
     e28:	02202821 	addu	a1,s1,zero

      if (unread_marker != out_unread_marker[i_marker++])
     e2c:	8f820000 	lw	v0,0(gp)
     e30:	00000000 	sll	zero,zero,0x0
     e34:	00021880 	sll	v1,v0,0x2
     e38:	00731821 	addu	v1,v1,s3
     e3c:	8c630000 	lw	v1,0(v1)
     e40:	24420001 	addiu	v0,v0,1
     e44:	12230005 	beq	s1,v1,e5c <read_markers+0xa8>
     e48:	af820000 	sw	v0,0(gp)
	{
		main_result++;
     e4c:	8f820000 	lw	v0,0(gp)
     e50:	00000000 	sll	zero,zero,0x0
     e54:	24420001 	addiu	v0,v0,1
     e58:	af820000 	sw	v0,0(gp)
	}


      switch (unread_marker)
     e5c:	2631ff40 	addiu	s1,s1,-192
     e60:	2e22001c 	sltiu	v0,s1,28
     e64:	10400019 	beqz	v0,ecc <read_markers+0x118>
     e68:	00118880 	sll	s1,s1,0x2
     e6c:	02b18821 	addu	s1,s5,s1
     e70:	8e220000 	lw	v0,0(s1)
     e74:	00000000 	sll	zero,zero,0x0
     e78:	00400008 	jr	v0
     e7c:	00000000 	sll	zero,zero,0x0
 *  Read from Buffer
 */
int
read_byte (void)
{
  return *ReadBuf++;
     e80:	90910000 	lbu	s1,0(a0)
     e84:	00000000 	sll	zero,zero,0x0

      do
	{
	  c = read_byte ();
	}
      while (c == 0xff);
     e88:	1230fffd 	beq	s1,s0,e80 <read_markers+0xcc>
     e8c:	24840001 	addiu	a0,a0,1
      if (c != 0)
     e90:	1620000b 	bnez	s1,ec0 <read_markers+0x10c>
     e94:	00000000 	sll	zero,zero,0x0
 *  Read from Buffer
 */
int
read_byte (void)
{
  return *ReadBuf++;
     e98:	90820000 	lbu	v0,0(a0)
     e9c:	00000000 	sll	zero,zero,0x0

  for (;;)
    {
      c = read_byte ();

      while (c != 0xff)
     ea0:	1050fff7 	beq	v0,s0,e80 <read_markers+0xcc>
     ea4:	24840001 	addiu	a0,a0,1
 *  Read from Buffer
 */
int
read_byte (void)
{
  return *ReadBuf++;
     ea8:	90820000 	lbu	v0,0(a0)
     eac:	00000000 	sll	zero,zero,0x0

  for (;;)
    {
      c = read_byte ();

      while (c != 0xff)
     eb0:	1450fff9 	bne	v0,s0,e98 <read_markers+0xe4>
     eb4:	24840001 	addiu	a0,a0,1
     eb8:	080003a0 	j	e80 <read_markers+0xcc>
     ebc:	00000000 	sll	zero,zero,0x0
      do
	{
	  c = read_byte ();
	}
      while (c == 0xff);
      if (c != 0)
     ec0:	08000388 	j	e20 <read_markers+0x6c>
     ec4:	af840014 	sw	a0,20(gp)


      switch (unread_marker)
	{
	case M_SOI:		/* Start of Image */
	  sow_SOI = 1;
     ec8:	24120001 	addiu	s2,zero,1
read_markers (unsigned char *buf)
{
  int unread_marker;
  int sow_SOI;

  ReadBuf = buf;
     ecc:	8f840014 	lw	a0,20(gp)
     ed0:	08000380 	j	e00 <read_markers+0x4c>
     ed4:	00000000 	sll	zero,zero,0x0

	case M_EOI:
	  return;
	}
    }
}
     ed8:	8fbf002c 	lw	ra,44(sp)
     edc:	8fb60028 	lw	s6,40(sp)
     ee0:	8fb50024 	lw	s5,36(sp)
     ee4:	8fb40020 	lw	s4,32(sp)
     ee8:	8fb3001c 	lw	s3,28(sp)
     eec:	8fb20018 	lw	s2,24(sp)
     ef0:	8fb10014 	lw	s1,20(sp)
     ef4:	8fb00010 	lw	s0,16(sp)
	case M_SOF0:		/* Baseline DCT ( Huffman ) */
	  get_sof ();
	  break;

	case M_SOS:		/* Start of Scan ( Head of Compressed Data ) */
	  get_sos ();
     ef8:	08000000 	j	0 <read_byte>
     efc:	27bd0030 	addiu	sp,sp,48

	case M_EOI:
	  return;
	}
    }
}
     f00:	8fbf002c 	lw	ra,44(sp)
     f04:	8fb60028 	lw	s6,40(sp)
     f08:	8fb50024 	lw	s5,36(sp)
     f0c:	8fb40020 	lw	s4,32(sp)
     f10:	8fb3001c 	lw	s3,28(sp)
     f14:	8fb20018 	lw	s2,24(sp)
     f18:	8fb10014 	lw	s1,20(sp)
     f1c:	8fb00010 	lw	s0,16(sp)
     f20:	03e00008 	jr	ra
     f24:	27bd0030 	addiu	sp,sp,48
	case M_DHT:
	  get_dht ();
	  break;

	case M_DQT:
	  get_dqt ();
     f28:	0c000000 	jal	0 <read_byte>
     f2c:	00000000 	sll	zero,zero,0x0
read_markers (unsigned char *buf)
{
  int unread_marker;
  int sow_SOI;

  ReadBuf = buf;
     f30:	8f840014 	lw	a0,20(gp)
     f34:	08000380 	j	e00 <read_markers+0x4c>
     f38:	00000000 	sll	zero,zero,0x0
	case M_SOI:		/* Start of Image */
	  sow_SOI = 1;
	  break;

	case M_SOF0:		/* Baseline DCT ( Huffman ) */
	  get_sof ();
     f3c:	0c000000 	jal	0 <read_byte>
     f40:	00000000 	sll	zero,zero,0x0
read_markers (unsigned char *buf)
{
  int unread_marker;
  int sow_SOI;

  ReadBuf = buf;
     f44:	8f840014 	lw	a0,20(gp)
     f48:	08000380 	j	e00 <read_markers+0x4c>
     f4c:	00000000 	sll	zero,zero,0x0
	case M_SOS:		/* Start of Scan ( Head of Compressed Data ) */
	  get_sos ();
	  return;

	case M_DHT:
	  get_dht ();
     f50:	0c000000 	jal	0 <read_byte>
     f54:	00000000 	sll	zero,zero,0x0
read_markers (unsigned char *buf)
{
  int unread_marker;
  int sow_SOI;

  ReadBuf = buf;
     f58:	8f840014 	lw	a0,20(gp)
     f5c:	08000380 	j	e00 <read_markers+0x4c>
     f60:	00000000 	sll	zero,zero,0x0
  c1 = read_byte ();
  c2 = read_byte ();

  if (c1 != 0xFF || c2 != M_SOI)
    {
      main_result++;
     f64:	8f820000 	lw	v0,0(gp)
      printf ("Not Jpeg File!\n");
     f68:	3c040000 	lui	a0,0x0
  c1 = read_byte ();
  c2 = read_byte ();

  if (c1 != 0xFF || c2 != M_SOI)
    {
      main_result++;
     f6c:	24420001 	addiu	v0,v0,1
      printf ("Not Jpeg File!\n");
     f70:	24840000 	addiu	a0,a0,0
     f74:	0c000000 	jal	0 <read_byte>
     f78:	af820000 	sw	v0,0(gp)
      EXIT;
     f7c:	0c000000 	jal	0 <read_byte>
     f80:	00002021 	addu	a0,zero,zero

00000f84 <ChenIDct>:
 * input vectors that represent x=input, and y=output, and must be
 * defined (and storage allocated) before this routine is called.
 */
void
ChenIDct (int *x, int *y)
{
     f84:	27bdffd8 	addiu	sp,sp,-40
     f88:	afbe0024 	sw	s8,36(sp)
     f8c:	afb70020 	sw	s7,32(sp)
     f90:	afb6001c 	sw	s6,28(sp)
     f94:	afb50018 	sw	s5,24(sp)
     f98:	afb40014 	sw	s4,20(sp)
     f9c:	afb30010 	sw	s3,16(sp)
     fa0:	afb2000c 	sw	s2,12(sp)
     fa4:	afb10008 	sw	s1,8(sp)
     fa8:	afb00004 	sw	s0,4(sp)
     fac:	afa5002c 	sw	a1,44(sp)
      *aptr = b0 - c3;
    }

  /* Loop over rows */

  for (i = 0; i < 8; i++)
     fb0:	00a01021 	addu	v0,a1,zero
  register int b0, b1, b2, b3;
  register int c0, c1, c2, c3;

  /* Loop over columns */

  for (i = 0; i < 8; i++)
     fb4:	00004021 	addu	t0,zero,zero
      aptr += 8;
      a0 = LS (*aptr, 2);
      aptr += 8;
      b2 = LS (*aptr, 2);
      aptr += 8;
      a1 = LS (*aptr, 2);
     fb8:	8c870060 	lw	a3,96(a0)
      aptr += 8;
      b1 = LS (*aptr, 2);
      aptr += 8;
      a2 = LS (*aptr, 2);
     fbc:	8c8600a0 	lw	a2,160(a0)
  for (i = 0; i < 8; i++)
    {
      aptr = x + i;
      b0 = LS (*aptr, 2);
      aptr += 8;
      a0 = LS (*aptr, 2);
     fc0:	8c850020 	lw	a1,32(a0)
      aptr += 8;
      a2 = LS (*aptr, 2);
      aptr += 8;
      b3 = LS (*aptr, 2);
      aptr += 8;
      a3 = LS (*aptr, 2);
     fc4:	8c8300e0 	lw	v1,224(a0)
      /* Split into even mode  b0 = x0  b1 = x4  b2 = x2  b3 = x6.
         And the odd terms a0 = x1 a1 = x3 a2 = x5 a3 = x7.
       */

      c0 = MSCALE ((c7d16 * a0) - (c1d16 * a3));
      c1 = MSCALE ((c3d16 * a2) - (c5d16 * a1));
     fc8:	00076140 	sll	t4,a3,0x5
     fcc:	00064a00 	sll	t1,a2,0x8
     fd0:	00075a00 	sll	t3,a3,0x8
     fd4:	00065140 	sll	t2,a2,0x5
     fd8:	018b5821 	addu	t3,t4,t3
     fdc:	01495021 	addu	t2,t2,t1
      aptr += 8;
      a0 = LS (*aptr, 2);
      aptr += 8;
      b2 = LS (*aptr, 2);
      aptr += 8;
      a1 = LS (*aptr, 2);
     fe0:	00073880 	sll	a3,a3,0x2
      aptr += 8;
      b1 = LS (*aptr, 2);
      aptr += 8;
      a2 = LS (*aptr, 2);
     fe4:	00063080 	sll	a2,a2,0x2

      /* Split into even mode  b0 = x0  b1 = x4  b2 = x2  b3 = x6.
         And the odd terms a0 = x1 a1 = x3 a2 = x5 a3 = x7.
       */

      c0 = MSCALE ((c7d16 * a0) - (c1d16 * a3));
     fe8:	00036100 	sll	t4,v1,0x4
     fec:	00054900 	sll	t1,a1,0x4
      c1 = MSCALE ((c3d16 * a2) - (c5d16 * a1));
     ff0:	01673823 	subu	a3,t3,a3
     ff4:	01463023 	subu	a2,t2,a2

      /* Split into even mode  b0 = x0  b1 = x4  b2 = x2  b3 = x6.
         And the odd terms a0 = x1 a1 = x3 a2 = x5 a3 = x7.
       */

      c0 = MSCALE ((c7d16 * a0) - (c1d16 * a3));
     ff8:	00035a80 	sll	t3,v1,0xa
      c1 = MSCALE ((c3d16 * a2) - (c5d16 * a1));
      c2 = MSCALE ((c3d16 * a1) + (c5d16 * a2));
      c3 = MSCALE ((c1d16 * a0) + (c7d16 * a3));
     ffc:	00055280 	sll	t2,a1,0xa

      /* Split into even mode  b0 = x0  b1 = x4  b2 = x2  b3 = x6.
         And the odd terms a0 = x1 a1 = x3 a2 = x5 a3 = x7.
       */

      c0 = MSCALE ((c7d16 * a0) - (c1d16 * a3));
    1000:	0005c980 	sll	t9,a1,0x6
      c1 = MSCALE ((c3d16 * a2) - (c5d16 * a1));
      c2 = MSCALE ((c3d16 * a1) + (c5d16 * a2));
      c3 = MSCALE ((c1d16 * a0) + (c7d16 * a3));
    1004:	0003c180 	sll	t8,v1,0x6

      /* Split into even mode  b0 = x0  b1 = x4  b2 = x2  b3 = x6.
         And the odd terms a0 = x1 a1 = x3 a2 = x5 a3 = x7.
       */

      c0 = MSCALE ((c7d16 * a0) - (c1d16 * a3));
    1008:	0139c821 	addu	t9,t1,t9
      c1 = MSCALE ((c3d16 * a2) - (c5d16 * a1));
    100c:	00077880 	sll	t7,a3,0x2
      c2 = MSCALE ((c3d16 * a1) + (c5d16 * a2));
      c3 = MSCALE ((c1d16 * a0) + (c7d16 * a3));
    1010:	0198c021 	addu	t8,t4,t8
    1014:	01494823 	subu	t1,t2,t1
      /* Split into even mode  b0 = x0  b1 = x4  b2 = x2  b3 = x6.
         And the odd terms a0 = x1 a1 = x3 a2 = x5 a3 = x7.
       */

      c0 = MSCALE ((c7d16 * a0) - (c1d16 * a3));
      c1 = MSCALE ((c3d16 * a2) - (c5d16 * a1));
    1018:	00067080 	sll	t6,a2,0x2
      aptr += 8;
      a2 = LS (*aptr, 2);
      aptr += 8;
      b3 = LS (*aptr, 2);
      aptr += 8;
      a3 = LS (*aptr, 2);
    101c:	00031880 	sll	v1,v1,0x2

      /* Split into even mode  b0 = x0  b1 = x4  b2 = x2  b3 = x6.
         And the odd terms a0 = x1 a1 = x3 a2 = x5 a3 = x7.
       */

      c0 = MSCALE ((c7d16 * a0) - (c1d16 * a3));
    1020:	016c6023 	subu	t4,t3,t4
  for (i = 0; i < 8; i++)
    {
      aptr = x + i;
      b0 = LS (*aptr, 2);
      aptr += 8;
      a0 = LS (*aptr, 2);
    1024:	00052880 	sll	a1,a1,0x2

      /* Split into even mode  b0 = x0  b1 = x4  b2 = x2  b3 = x6.
         And the odd terms a0 = x1 a1 = x3 a2 = x5 a3 = x7.
       */

      c0 = MSCALE ((c7d16 * a0) - (c1d16 * a3));
    1028:	006c5823 	subu	t3,v1,t4
      c1 = MSCALE ((c3d16 * a2) - (c5d16 * a1));
    102c:	01c63023 	subu	a2,t6,a2

      /* Split into even mode  b0 = x0  b1 = x4  b2 = x2  b3 = x6.
         And the odd terms a0 = x1 a1 = x3 a2 = x5 a3 = x7.
       */

      c0 = MSCALE ((c7d16 * a0) - (c1d16 * a3));
    1030:	00198880 	sll	s1,t9,0x2
      c1 = MSCALE ((c3d16 * a2) - (c5d16 * a1));
      c2 = MSCALE ((c3d16 * a1) + (c5d16 * a2));
    1034:	01e73823 	subu	a3,t7,a3
      c3 = MSCALE ((c1d16 * a0) + (c7d16 * a3));
    1038:	00185080 	sll	t2,t8,0x2
    103c:	01252823 	subu	a1,t1,a1
      aptr += 8;
      b2 = LS (*aptr, 2);
      aptr += 8;
      a1 = LS (*aptr, 2);
      aptr += 8;
      b1 = LS (*aptr, 2);
    1040:	8c900080 	lw	s0,128(a0)
  /* Loop over columns */

  for (i = 0; i < 8; i++)
    {
      aptr = x + i;
      b0 = LS (*aptr, 2);
    1044:	8c8d0000 	lw	t5,0(a0)

      /* Split into even mode  b0 = x0  b1 = x4  b2 = x2  b3 = x6.
         And the odd terms a0 = x1 a1 = x3 a2 = x5 a3 = x7.
       */

      c0 = MSCALE ((c7d16 * a0) - (c1d16 * a3));
    1048:	0331c821 	addu	t9,t9,s1
      c1 = MSCALE ((c3d16 * a2) - (c5d16 * a1));
    104c:	00066040 	sll	t4,a2,0x1
      c2 = MSCALE ((c3d16 * a1) + (c5d16 * a2));
    1050:	00073840 	sll	a3,a3,0x1
      c3 = MSCALE ((c1d16 * a0) + (c7d16 * a3));
    1054:	030ac021 	addu	t8,t8,t2
    1058:	00052840 	sll	a1,a1,0x1

      /* Split into even mode  b0 = x0  b1 = x4  b2 = x2  b3 = x6.
         And the odd terms a0 = x1 a1 = x3 a2 = x5 a3 = x7.
       */

      c0 = MSCALE ((c7d16 * a0) - (c1d16 * a3));
    105c:	000b5840 	sll	t3,t3,0x1
      c1 = MSCALE ((c3d16 * a2) - (c5d16 * a1));
      c2 = MSCALE ((c3d16 * a1) + (c5d16 * a2));
    1060:	01c77021 	addu	t6,t6,a3
      c3 = MSCALE ((c1d16 * a0) + (c7d16 * a3));
    1064:	03055021 	addu	t2,t8,a1

      /* Split into even mode  b0 = x0  b1 = x4  b2 = x2  b3 = x6.
         And the odd terms a0 = x1 a1 = x3 a2 = x5 a3 = x7.
       */

      c0 = MSCALE ((c7d16 * a0) - (c1d16 * a3));
    1068:	01795821 	addu	t3,t3,t9
      c1 = MSCALE ((c3d16 * a2) - (c5d16 * a1));
    106c:	018f6023 	subu	t4,t4,t7
      aptr += 8;
      b1 = LS (*aptr, 2);
      aptr += 8;
      a2 = LS (*aptr, 2);
      aptr += 8;
      b3 = LS (*aptr, 2);
    1070:	8c9800c0 	lw	t8,192(a0)
  /* Loop over columns */

  for (i = 0; i < 8; i++)
    {
      aptr = x + i;
      b0 = LS (*aptr, 2);
    1074:	000d6880 	sll	t5,t5,0x2
      aptr += 8;
      b2 = LS (*aptr, 2);
      aptr += 8;
      a1 = LS (*aptr, 2);
      aptr += 8;
      b1 = LS (*aptr, 2);
    1078:	00103080 	sll	a2,s0,0x2
      /* Split into even mode  b0 = x0  b1 = x4  b2 = x2  b3 = x6.
         And the odd terms a0 = x1 a1 = x3 a2 = x5 a3 = x7.
       */

      c0 = MSCALE ((c7d16 * a0) - (c1d16 * a3));
      c1 = MSCALE ((c3d16 * a2) - (c5d16 * a1));
    107c:	000c6243 	sra	t4,t4,0x9
      c2 = MSCALE ((c3d16 * a1) + (c5d16 * a2));
    1080:	000e4a43 	sra	t1,t6,0x9
      c3 = MSCALE ((c1d16 * a0) + (c7d16 * a3));
    1084:	000a5243 	sra	t2,t2,0x9

      /* Split into even mode  b0 = x0  b1 = x4  b2 = x2  b3 = x6.
         And the odd terms a0 = x1 a1 = x3 a2 = x5 a3 = x7.
       */

      c0 = MSCALE ((c7d16 * a0) - (c1d16 * a3));
    1088:	000b5a43 	sra	t3,t3,0x9
      aptr = x + i;
      b0 = LS (*aptr, 2);
      aptr += 8;
      a0 = LS (*aptr, 2);
      aptr += 8;
      b2 = LS (*aptr, 2);
    108c:	8c990040 	lw	t9,64(a0)
      c2 = MSCALE ((c3d16 * a1) + (c5d16 * a2));
      c3 = MSCALE ((c1d16 * a0) + (c7d16 * a3));

      /* First Butterfly on even terms. */

      a0 = MSCALE (c1d4 * (b0 + b1));
    1090:	00cd3821 	addu	a3,a2,t5
      b3 = a0 - a3;

      /* Second Butterfly */

      a0 = c0 + c1;
      a1 = c0 - c1;
    1094:	016c1823 	subu	v1,t3,t4
      c3 = MSCALE ((c1d16 * a0) + (c7d16 * a3));

      /* First Butterfly on even terms. */

      a0 = MSCALE (c1d4 * (b0 + b1));
      a1 = MSCALE (c1d4 * (b0 - b1));
    1098:	01a63023 	subu	a2,t5,a2

      /* Second Butterfly */

      a0 = c0 + c1;
      a1 = c0 - c1;
      a2 = c3 - c2;
    109c:	01496823 	subu	t5,t2,t1
      a3 = c3 + c2;

      c0 = a0;
      c1 = MSCALE (c1d4 * (a2 - a1));
    10a0:	01a32823 	subu	a1,t5,v1
      /* First Butterfly on even terms. */

      a0 = MSCALE (c1d4 * (b0 + b1));
      a1 = MSCALE (c1d4 * (b0 - b1));

      a2 = MSCALE ((c3d8 * b2) - (c1d8 * b3));
    10a4:	00189900 	sll	s3,t8,0x4
      a2 = c3 - c2;
      a3 = c3 + c2;

      c0 = a0;
      c1 = MSCALE (c1d4 * (a2 - a1));
      c2 = MSCALE (c1d4 * (a2 + a1));
    10a8:	01a31821 	addu	v1,t5,v1
      c3 = MSCALE ((c1d16 * a0) + (c7d16 * a3));

      /* First Butterfly on even terms. */

      a0 = MSCALE (c1d4 * (b0 + b1));
      a1 = MSCALE (c1d4 * (b0 - b1));
    10ac:	00068900 	sll	s1,a2,0x4
    10b0:	00066880 	sll	t5,a2,0x2

      a2 = MSCALE ((c3d8 * b2) - (c1d8 * b3));
    10b4:	0018f200 	sll	s8,t8,0x8
    10b8:	0019a100 	sll	s4,t9,0x4
      c2 = MSCALE ((c3d16 * a1) + (c5d16 * a2));
      c3 = MSCALE ((c1d16 * a0) + (c7d16 * a3));

      /* First Butterfly on even terms. */

      a0 = MSCALE (c1d4 * (b0 + b1));
    10bc:	00077080 	sll	t6,a3,0x2
      aptr = x + i;
      b0 = LS (*aptr, 2);
      aptr += 8;
      a0 = LS (*aptr, 2);
      aptr += 8;
      b2 = LS (*aptr, 2);
    10c0:	00197880 	sll	t7,t9,0x2
      aptr += 8;
      b1 = LS (*aptr, 2);
      aptr += 8;
      a2 = LS (*aptr, 2);
      aptr += 8;
      b3 = LS (*aptr, 2);
    10c4:	00188080 	sll	s0,t8,0x2
      c3 = MSCALE ((c1d16 * a0) + (c7d16 * a3));

      /* First Butterfly on even terms. */

      a0 = MSCALE (c1d4 * (b0 + b1));
      a1 = MSCALE (c1d4 * (b0 - b1));
    10c8:	022d8823 	subu	s1,s1,t5
      a2 = c3 - c2;
      a3 = c3 + c2;

      c0 = a0;
      c1 = MSCALE (c1d4 * (a2 - a1));
      c2 = MSCALE (c1d4 * (a2 + a1));
    10cc:	0003b100 	sll	s6,v1,0x4
      c2 = MSCALE ((c3d16 * a1) + (c5d16 * a2));
      c3 = MSCALE ((c1d16 * a0) + (c7d16 * a3));

      /* First Butterfly on even terms. */

      a0 = MSCALE (c1d4 * (b0 + b1));
    10d0:	00079100 	sll	s2,a3,0x4
      a1 = MSCALE (c1d4 * (b0 - b1));

      a2 = MSCALE ((c3d8 * b2) - (c1d8 * b3));
      a3 = MSCALE ((c1d8 * b2) + (c3d8 * b3));
    10d4:	0019aa00 	sll	s5,t9,0x8
      /* First Butterfly on even terms. */

      a0 = MSCALE (c1d4 * (b0 + b1));
      a1 = MSCALE (c1d4 * (b0 - b1));

      a2 = MSCALE ((c3d8 * b2) - (c1d8 * b3));
    10d8:	03d3f023 	subu	s8,s8,s3
      a2 = c3 - c2;
      a3 = c3 + c2;

      c0 = a0;
      c1 = MSCALE (c1d4 * (a2 - a1));
      c2 = MSCALE (c1d4 * (a2 + a1));
    10dc:	00036880 	sll	t5,v1,0x2
      /* First Butterfly on even terms. */

      a0 = MSCALE (c1d4 * (b0 + b1));
      a1 = MSCALE (c1d4 * (b0 - b1));

      a2 = MSCALE ((c3d8 * b2) - (c1d8 * b3));
    10e0:	0019c9c0 	sll	t9,t9,0x7
      a3 = MSCALE ((c1d8 * b2) + (c3d8 * b3));
    10e4:	0018c1c0 	sll	t8,t8,0x7
      c2 = MSCALE ((c3d16 * a1) + (c5d16 * a2));
      c3 = MSCALE ((c1d16 * a0) + (c7d16 * a3));

      /* First Butterfly on even terms. */

      a0 = MSCALE (c1d4 * (b0 + b1));
    10e8:	024e9023 	subu	s2,s2,t6
      a1 = c0 - c1;
      a2 = c3 - c2;
      a3 = c3 + c2;

      c0 = a0;
      c1 = MSCALE (c1d4 * (a2 - a1));
    10ec:	0005b900 	sll	s7,a1,0x4
      /* First Butterfly on even terms. */

      a0 = MSCALE (c1d4 * (b0 + b1));
      a1 = MSCALE (c1d4 * (b0 - b1));

      a2 = MSCALE ((c3d8 * b2) - (c1d8 * b3));
    10f0:	0334c823 	subu	t9,t9,s4
      a3 = MSCALE ((c1d8 * b2) + (c3d8 * b3));
    10f4:	0313c023 	subu	t8,t8,s3
      a2 = c3 - c2;
      a3 = c3 + c2;

      c0 = a0;
      c1 = MSCALE (c1d4 * (a2 - a1));
      c2 = MSCALE (c1d4 * (a2 + a1));
    10f8:	02cd6823 	subu	t5,s6,t5

      a0 = MSCALE (c1d4 * (b0 + b1));
      a1 = MSCALE (c1d4 * (b0 - b1));

      a2 = MSCALE ((c3d8 * b2) - (c1d8 * b3));
      a3 = MSCALE ((c1d8 * b2) + (c3d8 * b3));
    10fc:	02b4a823 	subu	s5,s5,s4
      a1 = c0 - c1;
      a2 = c3 - c2;
      a3 = c3 + c2;

      c0 = a0;
      c1 = MSCALE (c1d4 * (a2 - a1));
    1100:	00057080 	sll	t6,a1,0x2
      c3 = MSCALE ((c1d16 * a0) + (c7d16 * a3));

      /* First Butterfly on even terms. */

      a0 = MSCALE (c1d4 * (b0 + b1));
      a1 = MSCALE (c1d4 * (b0 - b1));
    1104:	00119900 	sll	s3,s1,0x4

      a2 = MSCALE ((c3d8 * b2) - (c1d8 * b3));
    1108:	03d0f023 	subu	s8,s8,s0
      a1 = c0 - c1;
      a2 = c3 - c2;
      a3 = c3 + c2;

      c0 = a0;
      c1 = MSCALE (c1d4 * (a2 - a1));
    110c:	02ee7023 	subu	t6,s7,t6
      c2 = MSCALE ((c3d16 * a1) + (c5d16 * a2));
      c3 = MSCALE ((c1d16 * a0) + (c7d16 * a3));

      /* First Butterfly on even terms. */

      a0 = MSCALE (c1d4 * (b0 + b1));
    1110:	0012a100 	sll	s4,s2,0x4
      a1 = MSCALE (c1d4 * (b0 - b1));

      a2 = MSCALE ((c3d8 * b2) - (c1d8 * b3));
      a3 = MSCALE ((c1d8 * b2) + (c3d8 * b3));
    1114:	02afa823 	subu	s5,s5,t7
      c3 = MSCALE ((c1d16 * a0) + (c7d16 * a3));

      /* First Butterfly on even terms. */

      a0 = MSCALE (c1d4 * (b0 + b1));
      a1 = MSCALE (c1d4 * (b0 - b1));
    1118:	02718823 	subu	s1,s3,s1

      a2 = MSCALE ((c3d8 * b2) - (c1d8 * b3));
    111c:	001ef0c0 	sll	s8,s8,0x3
    1120:	0019b8c0 	sll	s7,t9,0x3
      a2 = c3 - c2;
      a3 = c3 + c2;

      c0 = a0;
      c1 = MSCALE (c1d4 * (a2 - a1));
      c2 = MSCALE (c1d4 * (a2 + a1));
    1124:	000d9900 	sll	s3,t5,0x4
      c2 = MSCALE ((c3d16 * a1) + (c5d16 * a2));
      c3 = MSCALE ((c1d16 * a0) + (c7d16 * a3));

      /* First Butterfly on even terms. */

      a0 = MSCALE (c1d4 * (b0 + b1));
    1128:	02929023 	subu	s2,s4,s2
      a1 = MSCALE (c1d4 * (b0 - b1));
    112c:	02268821 	addu	s1,s1,a2
      a2 = c3 - c2;
      a3 = c3 + c2;

      c0 = a0;
      c1 = MSCALE (c1d4 * (a2 - a1));
      c2 = MSCALE (c1d4 * (a2 + a1));
    1130:	026d6823 	subu	t5,s3,t5

      a0 = MSCALE (c1d4 * (b0 + b1));
      a1 = MSCALE (c1d4 * (b0 - b1));

      a2 = MSCALE ((c3d8 * b2) - (c1d8 * b3));
      a3 = MSCALE ((c1d8 * b2) + (c3d8 * b3));
    1134:	0018b0c0 	sll	s6,t8,0x3
    1138:	0015a8c0 	sll	s5,s5,0x3
      a1 = c0 - c1;
      a2 = c3 - c2;
      a3 = c3 + c2;

      c0 = a0;
      c1 = MSCALE (c1d4 * (a2 - a1));
    113c:	000ea100 	sll	s4,t6,0x4
      /* First Butterfly on even terms. */

      a0 = MSCALE (c1d4 * (b0 + b1));
      a1 = MSCALE (c1d4 * (b0 - b1));

      a2 = MSCALE ((c3d8 * b2) - (c1d8 * b3));
    1140:	03d08021 	addu	s0,s8,s0
    1144:	02f9c823 	subu	t9,s7,t9
      c2 = MSCALE ((c3d16 * a1) + (c5d16 * a2));
      c3 = MSCALE ((c1d16 * a0) + (c7d16 * a3));

      /* First Butterfly on even terms. */

      a0 = MSCALE (c1d4 * (b0 + b1));
    1148:	02479021 	addu	s2,s2,a3
      a1 = c0 - c1;
      a2 = c3 - c2;
      a3 = c3 + c2;

      c0 = a0;
      c1 = MSCALE (c1d4 * (a2 - a1));
    114c:	028e7023 	subu	t6,s4,t6
      c2 = MSCALE (c1d4 * (a2 + a1));
    1150:	01a31821 	addu	v1,t5,v1

      a0 = MSCALE (c1d4 * (b0 + b1));
      a1 = MSCALE (c1d4 * (b0 - b1));

      a2 = MSCALE ((c3d8 * b2) - (c1d8 * b3));
      a3 = MSCALE ((c1d8 * b2) + (c3d8 * b3));
    1154:	02d8c023 	subu	t8,s6,t8
    1158:	02af7821 	addu	t7,s5,t7
      c3 = MSCALE ((c1d16 * a0) + (c7d16 * a3));

      /* First Butterfly on even terms. */

      a0 = MSCALE (c1d4 * (b0 + b1));
      a1 = MSCALE (c1d4 * (b0 - b1));
    115c:	00118840 	sll	s1,s1,0x1

      a2 = MSCALE ((c3d8 * b2) - (c1d8 * b3));
    1160:	0330c823 	subu	t9,t9,s0
      a1 = c0 - c1;
      a2 = c3 - c2;
      a3 = c3 + c2;

      c0 = a0;
      c1 = MSCALE (c1d4 * (a2 - a1));
    1164:	01c52821 	addu	a1,t6,a1
      c3 = MSCALE ((c1d16 * a0) + (c7d16 * a3));

      /* First Butterfly on even terms. */

      a0 = MSCALE (c1d4 * (b0 + b1));
      a1 = MSCALE (c1d4 * (b0 - b1));
    1168:	00118a43 	sra	s1,s1,0x9

      a2 = MSCALE ((c3d8 * b2) - (c1d8 * b3));
    116c:	0019ca43 	sra	t9,t9,0x9
      c2 = MSCALE ((c3d16 * a1) + (c5d16 * a2));
      c3 = MSCALE ((c1d16 * a0) + (c7d16 * a3));

      /* First Butterfly on even terms. */

      a0 = MSCALE (c1d4 * (b0 + b1));
    1170:	00129040 	sll	s2,s2,0x1
      a1 = MSCALE (c1d4 * (b0 - b1));

      a2 = MSCALE ((c3d8 * b2) - (c1d8 * b3));
      a3 = MSCALE ((c1d8 * b2) + (c3d8 * b3));
    1174:	030f7821 	addu	t7,t8,t7
      a2 = c3 - c2;
      a3 = c3 + c2;

      c0 = a0;
      c1 = MSCALE (c1d4 * (a2 - a1));
      c2 = MSCALE (c1d4 * (a2 + a1));
    1178:	00031840 	sll	v1,v1,0x1

      a2 = MSCALE ((c3d8 * b2) - (c1d8 * b3));
      a3 = MSCALE ((c1d8 * b2) + (c3d8 * b3));

      b0 = a0 + a3;
      b1 = a1 + a2;
    117c:	02396821 	addu	t5,s1,t9
      c2 = MSCALE ((c3d16 * a1) + (c5d16 * a2));
      c3 = MSCALE ((c1d16 * a0) + (c7d16 * a3));

      /* First Butterfly on even terms. */

      a0 = MSCALE (c1d4 * (b0 + b1));
    1180:	00129243 	sra	s2,s2,0x9
      a1 = MSCALE (c1d4 * (b0 - b1));

      a2 = MSCALE ((c3d8 * b2) - (c1d8 * b3));
      a3 = MSCALE ((c1d8 * b2) + (c3d8 * b3));
    1184:	000f7a43 	sra	t7,t7,0x9
      a2 = c3 - c2;
      a3 = c3 + c2;

      c0 = a0;
      c1 = MSCALE (c1d4 * (a2 - a1));
      c2 = MSCALE (c1d4 * (a2 + a1));
    1188:	00031a43 	sra	v1,v1,0x9
      a1 = c0 - c1;
      a2 = c3 - c2;
      a3 = c3 + c2;

      c0 = a0;
      c1 = MSCALE (c1d4 * (a2 - a1));
    118c:	00052840 	sll	a1,a1,0x1
      a1 = MSCALE (c1d4 * (b0 - b1));

      a2 = MSCALE ((c3d8 * b2) - (c1d8 * b3));
      a3 = MSCALE ((c1d8 * b2) + (c3d8 * b3));

      b0 = a0 + a3;
    1190:	01f23021 	addu	a2,t7,s2
      b2 = a1 - a2;
      b3 = a0 - a3;

      /* Second Butterfly */

      a0 = c0 + c1;
    1194:	018b5821 	addu	t3,t4,t3
      a1 = c0 - c1;
      a2 = c3 - c2;
      a3 = c3 + c2;
    1198:	01494821 	addu	t1,t2,t1
      a2 = MSCALE ((c3d8 * b2) - (c1d8 * b3));
      a3 = MSCALE ((c1d8 * b2) + (c3d8 * b3));

      b0 = a0 + a3;
      b1 = a1 + a2;
      b2 = a1 - a2;
    119c:	0239c823 	subu	t9,s1,t9
      b3 = a0 - a3;
    11a0:	024f9023 	subu	s2,s2,t7
      a1 = c0 - c1;
      a2 = c3 - c2;
      a3 = c3 + c2;

      c0 = a0;
      c1 = MSCALE (c1d4 * (a2 - a1));
    11a4:	00052a43 	sra	a1,a1,0x9
      c3 = a3;

      aptr = y + i;
      *aptr = b0 + c3;
      aptr += 8;
      *aptr = b1 + c2;
    11a8:	006d6021 	addu	t4,v1,t5
      aptr += 8;
      *aptr = b3 - c0;
      aptr += 8;
      *aptr = b2 - c1;
      aptr += 8;
      *aptr = b1 - c2;
    11ac:	01a31823 	subu	v1,t5,v1
      c1 = MSCALE (c1d4 * (a2 - a1));
      c2 = MSCALE (c1d4 * (a2 + a1));
      c3 = a3;

      aptr = y + i;
      *aptr = b0 + c3;
    11b0:	01267021 	addu	t6,t1,a2
      aptr += 8;
      *aptr = b1 + c2;
      aptr += 8;
      *aptr = b2 + c1;
    11b4:	00b95021 	addu	t2,a1,t9
      aptr += 8;
      *aptr = b3 + c0;
    11b8:	01723821 	addu	a3,t3,s2
      aptr += 8;
      *aptr = b3 - c0;
      aptr += 8;
      *aptr = b2 - c1;
      aptr += 8;
      *aptr = b1 - c2;
    11bc:	ac4300c0 	sw	v1,192(v0)
      aptr += 8;
      *aptr = b2 + c1;
      aptr += 8;
      *aptr = b3 + c0;
      aptr += 8;
      *aptr = b3 - c0;
    11c0:	024b5823 	subu	t3,s2,t3
      aptr += 8;
      *aptr = b2 - c1;
    11c4:	03252823 	subu	a1,t9,a1
      aptr += 8;
      *aptr = b1 - c2;
      aptr += 8;
      *aptr = b0 - c3;
    11c8:	00c94823 	subu	t1,a2,t1
  register int b0, b1, b2, b3;
  register int c0, c1, c2, c3;

  /* Loop over columns */

  for (i = 0; i < 8; i++)
    11cc:	25080001 	addiu	t0,t0,1
    11d0:	24030008 	addiu	v1,zero,8
      c1 = MSCALE (c1d4 * (a2 - a1));
      c2 = MSCALE (c1d4 * (a2 + a1));
      c3 = a3;

      aptr = y + i;
      *aptr = b0 + c3;
    11d4:	ac4e0000 	sw	t6,0(v0)
      aptr += 8;
      *aptr = b1 + c2;
    11d8:	ac4c0020 	sw	t4,32(v0)
      aptr += 8;
      *aptr = b2 + c1;
    11dc:	ac4a0040 	sw	t2,64(v0)
      aptr += 8;
      *aptr = b3 + c0;
    11e0:	ac470060 	sw	a3,96(v0)
      aptr += 8;
      *aptr = b3 - c0;
    11e4:	ac4b0080 	sw	t3,128(v0)
      aptr += 8;
      *aptr = b2 - c1;
    11e8:	ac4500a0 	sw	a1,160(v0)
      aptr += 8;
      *aptr = b1 - c2;
      aptr += 8;
      *aptr = b0 - c3;
    11ec:	ac4900e0 	sw	t1,224(v0)
  register int b0, b1, b2, b3;
  register int c0, c1, c2, c3;

  /* Loop over columns */

  for (i = 0; i < 8; i++)
    11f0:	24840004 	addiu	a0,a0,4
    11f4:	1503ff70 	bne	t0,v1,fb8 <ChenIDct+0x34>
    11f8:	24420004 	addiu	v0,v0,4
    11fc:	00002821 	addu	a1,zero,zero
      *aptr = b0 - c3;
    }

  /* Loop over rows */

  for (i = 0; i < 8; i++)
    1200:	24160008 	addiu	s6,zero,8
    {
      aptr = y + LS (i, 3);
    1204:	8fa3002c 	lw	v1,44(sp)
    1208:	00051140 	sll	v0,a1,0x5
    120c:	00621021 	addu	v0,v1,v0
      b0 = *(aptr++);
      a0 = *(aptr++);
      b2 = *(aptr++);
      a1 = *(aptr++);
    1210:	8c46000c 	lw	a2,12(v0)
      b1 = *(aptr++);
      a2 = *(aptr++);
    1214:	8c470014 	lw	a3,20(v0)

  for (i = 0; i < 8; i++)
    {
      aptr = y + LS (i, 3);
      b0 = *(aptr++);
      a0 = *(aptr++);
    1218:	8c430004 	lw	v1,4(v0)
      b2 = *(aptr++);
      a1 = *(aptr++);
      b1 = *(aptr++);
      a2 = *(aptr++);
      b3 = *(aptr++);
      a3 = *(aptr);
    121c:	8c44001c 	lw	a0,28(v0)
         Split into even mode  b0 = x0  b1 = x4  b2 = x2  b3 = x6.
         And the odd terms a0 = x1 a1 = x3 a2 = x5 a3 = x7.
       */

      c0 = MSCALE ((c7d16 * a0) - (c1d16 * a3));
      c1 = MSCALE ((c3d16 * a2) - (c5d16 * a1));
    1220:	000758c0 	sll	t3,a3,0x3
    1224:	000650c0 	sll	t2,a2,0x3
    1228:	00074980 	sll	t1,a3,0x6
    122c:	00064180 	sll	t0,a2,0x6
    1230:	01694821 	addu	t1,t3,t1
    1234:	01484021 	addu	t0,t2,t0
      /*
         Split into even mode  b0 = x0  b1 = x4  b2 = x2  b3 = x6.
         And the odd terms a0 = x1 a1 = x3 a2 = x5 a3 = x7.
       */

      c0 = MSCALE ((c7d16 * a0) - (c1d16 * a3));
    1238:	00046080 	sll	t4,a0,0x2
    123c:	00035080 	sll	t2,v1,0x2
      c1 = MSCALE ((c3d16 * a2) - (c5d16 * a1));
    1240:	01063023 	subu	a2,t0,a2
      /*
         Split into even mode  b0 = x0  b1 = x4  b2 = x2  b3 = x6.
         And the odd terms a0 = x1 a1 = x3 a2 = x5 a3 = x7.
       */

      c0 = MSCALE ((c7d16 * a0) - (c1d16 * a3));
    1244:	00046a00 	sll	t5,a0,0x8
      c1 = MSCALE ((c3d16 * a2) - (c5d16 * a1));
      c2 = MSCALE ((c3d16 * a1) + (c5d16 * a2));
      c3 = MSCALE ((c1d16 * a0) + (c7d16 * a3));
    1248:	00035a00 	sll	t3,v1,0x8
         Split into even mode  b0 = x0  b1 = x4  b2 = x2  b3 = x6.
         And the odd terms a0 = x1 a1 = x3 a2 = x5 a3 = x7.
       */

      c0 = MSCALE ((c7d16 * a0) - (c1d16 * a3));
      c1 = MSCALE ((c3d16 * a2) - (c5d16 * a1));
    124c:	01273823 	subu	a3,t1,a3
      /*
         Split into even mode  b0 = x0  b1 = x4  b2 = x2  b3 = x6.
         And the odd terms a0 = x1 a1 = x3 a2 = x5 a3 = x7.
       */

      c0 = MSCALE ((c7d16 * a0) - (c1d16 * a3));
    1250:	00037100 	sll	t6,v1,0x4
      c1 = MSCALE ((c3d16 * a2) - (c5d16 * a1));
      c2 = MSCALE ((c3d16 * a1) + (c5d16 * a2));
      c3 = MSCALE ((c1d16 * a0) + (c7d16 * a3));
    1254:	00044100 	sll	t0,a0,0x4
      /*
         Split into even mode  b0 = x0  b1 = x4  b2 = x2  b3 = x6.
         And the odd terms a0 = x1 a1 = x3 a2 = x5 a3 = x7.
       */

      c0 = MSCALE ((c7d16 * a0) - (c1d16 * a3));
    1258:	014e7021 	addu	t6,t2,t6
      c1 = MSCALE ((c3d16 * a2) - (c5d16 * a1));
      c2 = MSCALE ((c3d16 * a1) + (c5d16 * a2));
      c3 = MSCALE ((c1d16 * a0) + (c7d16 * a3));
    125c:	01884021 	addu	t0,t4,t0
    1260:	016a5023 	subu	t2,t3,t2
      /*
         Split into even mode  b0 = x0  b1 = x4  b2 = x2  b3 = x6.
         And the odd terms a0 = x1 a1 = x3 a2 = x5 a3 = x7.
       */

      c0 = MSCALE ((c7d16 * a0) - (c1d16 * a3));
    1264:	01ac6023 	subu	t4,t5,t4
      c1 = MSCALE ((c3d16 * a2) - (c5d16 * a1));
    1268:	00074880 	sll	t1,a3,0x2
    126c:	00067880 	sll	t7,a2,0x2
      /*
         Split into even mode  b0 = x0  b1 = x4  b2 = x2  b3 = x6.
         And the odd terms a0 = x1 a1 = x3 a2 = x5 a3 = x7.
       */

      c0 = MSCALE ((c7d16 * a0) - (c1d16 * a3));
    1270:	008c2023 	subu	a0,a0,t4
    1274:	000e6880 	sll	t5,t6,0x2
      c1 = MSCALE ((c3d16 * a2) - (c5d16 * a1));
    1278:	01273823 	subu	a3,t1,a3
      c2 = MSCALE ((c3d16 * a1) + (c5d16 * a2));
    127c:	01e63023 	subu	a2,t7,a2
      c3 = MSCALE ((c1d16 * a0) + (c7d16 * a3));
    1280:	00085880 	sll	t3,t0,0x2
    1284:	01431823 	subu	v1,t2,v1
      /*
         Split into even mode  b0 = x0  b1 = x4  b2 = x2  b3 = x6.
         And the odd terms a0 = x1 a1 = x3 a2 = x5 a3 = x7.
       */

      c0 = MSCALE ((c7d16 * a0) - (c1d16 * a3));
    1288:	00042040 	sll	a0,a0,0x1
    128c:	01cd6821 	addu	t5,t6,t5
      c1 = MSCALE ((c3d16 * a2) - (c5d16 * a1));
    1290:	00073840 	sll	a3,a3,0x1
      c2 = MSCALE ((c3d16 * a1) + (c5d16 * a2));
    1294:	00063040 	sll	a2,a2,0x1
      c3 = MSCALE ((c1d16 * a0) + (c7d16 * a3));
    1298:	010b5821 	addu	t3,t0,t3
    129c:	00031840 	sll	v1,v1,0x1
  /* Loop over rows */

  for (i = 0; i < 8; i++)
    {
      aptr = y + LS (i, 3);
      b0 = *(aptr++);
    12a0:	8c4e0000 	lw	t6,0(v0)
      a0 = *(aptr++);
      b2 = *(aptr++);
      a1 = *(aptr++);
      b1 = *(aptr++);
    12a4:	8c480010 	lw	t0,16(v0)
         Split into even mode  b0 = x0  b1 = x4  b2 = x2  b3 = x6.
         And the odd terms a0 = x1 a1 = x3 a2 = x5 a3 = x7.
       */

      c0 = MSCALE ((c7d16 * a0) - (c1d16 * a3));
      c1 = MSCALE ((c3d16 * a2) - (c5d16 * a1));
    12a8:	00ef7823 	subu	t7,a3,t7
      c2 = MSCALE ((c3d16 * a1) + (c5d16 * a2));
    12ac:	01264821 	addu	t1,t1,a2
      /*
         Split into even mode  b0 = x0  b1 = x4  b2 = x2  b3 = x6.
         And the odd terms a0 = x1 a1 = x3 a2 = x5 a3 = x7.
       */

      c0 = MSCALE ((c7d16 * a0) - (c1d16 * a3));
    12b0:	008d6821 	addu	t5,a0,t5
      c1 = MSCALE ((c3d16 * a2) - (c5d16 * a1));
      c2 = MSCALE ((c3d16 * a1) + (c5d16 * a2));
      c3 = MSCALE ((c1d16 * a0) + (c7d16 * a3));
    12b4:	01635821 	addu	t3,t3,v1
      a0 = *(aptr++);
      b2 = *(aptr++);
      a1 = *(aptr++);
      b1 = *(aptr++);
      a2 = *(aptr++);
      b3 = *(aptr++);
    12b8:	8c440018 	lw	a0,24(v0)
  for (i = 0; i < 8; i++)
    {
      aptr = y + LS (i, 3);
      b0 = *(aptr++);
      a0 = *(aptr++);
      b2 = *(aptr++);
    12bc:	8c430008 	lw	v1,8(v0)
      /*
         Split into even mode  b0 = x0  b1 = x4  b2 = x2  b3 = x6.
         And the odd terms a0 = x1 a1 = x3 a2 = x5 a3 = x7.
       */

      c0 = MSCALE ((c7d16 * a0) - (c1d16 * a3));
    12c0:	000d6a43 	sra	t5,t5,0x9
      c1 = MSCALE ((c3d16 * a2) - (c5d16 * a1));
    12c4:	000f6243 	sra	t4,t7,0x9
      c2 = MSCALE ((c3d16 * a1) + (c5d16 * a2));
    12c8:	00095243 	sra	t2,t1,0x9
      c3 = MSCALE ((c1d16 * a0) + (c7d16 * a3));
    12cc:	000b5a43 	sra	t3,t3,0x9

      /* First Butterfly on even terms. */

      a0 = MSCALE (c1d4 * (b0 + b1));
    12d0:	010e4821 	addu	t1,t0,t6
      b3 = a0 - a3;

      /* Second Butterfly */

      a0 = c0 + c1;
      a1 = c0 - c1;
    12d4:	01ac3023 	subu	a2,t5,t4
      c3 = MSCALE ((c1d16 * a0) + (c7d16 * a3));

      /* First Butterfly on even terms. */

      a0 = MSCALE (c1d4 * (b0 + b1));
      a1 = MSCALE (c1d4 * (b0 - b1));
    12d8:	01c84023 	subu	t0,t6,t0

      /* Second Butterfly */

      a0 = c0 + c1;
      a1 = c0 - c1;
      a2 = c3 - c2;
    12dc:	016a7023 	subu	t6,t3,t2
      a3 = c3 + c2;

      c0 = a0;
      c1 = MSCALE (c1d4 * (a2 - a1));
    12e0:	01c63823 	subu	a3,t6,a2
      /* First Butterfly on even terms. */

      a0 = MSCALE (c1d4 * (b0 + b1));
      a1 = MSCALE (c1d4 * (b0 - b1));

      a2 = MSCALE ((c3d8 * b2) - (c1d8 * b3));
    12e4:	0004c080 	sll	t8,a0,0x2
      a2 = c3 - c2;
      a3 = c3 + c2;

      c0 = a0;
      c1 = MSCALE (c1d4 * (a2 - a1));
      c2 = MSCALE (c1d4 * (a2 + a1));
    12e8:	01c63021 	addu	a2,t6,a2
      /* First Butterfly on even terms. */

      a0 = MSCALE (c1d4 * (b0 + b1));
      a1 = MSCALE (c1d4 * (b0 - b1));

      a2 = MSCALE ((c3d8 * b2) - (c1d8 * b3));
    12ec:	0003c880 	sll	t9,v1,0x2
      c2 = MSCALE ((c3d16 * a1) + (c5d16 * a2));
      c3 = MSCALE ((c1d16 * a0) + (c7d16 * a3));

      /* First Butterfly on even terms. */

      a0 = MSCALE (c1d4 * (b0 + b1));
    12f0:	00097880 	sll	t7,t1,0x2
      a1 = MSCALE (c1d4 * (b0 - b1));
    12f4:	00087080 	sll	t6,t0,0x2
      c2 = MSCALE ((c3d16 * a1) + (c5d16 * a2));
      c3 = MSCALE ((c1d16 * a0) + (c7d16 * a3));

      /* First Butterfly on even terms. */

      a0 = MSCALE (c1d4 * (b0 + b1));
    12f8:	00098900 	sll	s1,t1,0x4
      a1 = MSCALE (c1d4 * (b0 - b1));
    12fc:	00088100 	sll	s0,t0,0x4

      a2 = MSCALE ((c3d8 * b2) - (c1d8 * b3));
    1300:	0004f180 	sll	s8,a0,0x6
      a3 = MSCALE ((c1d8 * b2) + (c3d8 * b3));
    1304:	0003a180 	sll	s4,v1,0x6
      c2 = MSCALE ((c3d16 * a1) + (c5d16 * a2));
      c3 = MSCALE ((c1d16 * a0) + (c7d16 * a3));

      /* First Butterfly on even terms. */

      a0 = MSCALE (c1d4 * (b0 + b1));
    1308:	022f8823 	subu	s1,s1,t7
      a1 = MSCALE (c1d4 * (b0 - b1));
    130c:	020e8023 	subu	s0,s0,t6

      a2 = MSCALE ((c3d8 * b2) - (c1d8 * b3));
    1310:	0003b940 	sll	s7,v1,0x5
      a3 = MSCALE ((c1d8 * b2) + (c3d8 * b3));
    1314:	0004a940 	sll	s5,a0,0x5
      a1 = c0 - c1;
      a2 = c3 - c2;
      a3 = c3 + c2;

      c0 = a0;
      c1 = MSCALE (c1d4 * (a2 - a1));
    1318:	00079900 	sll	s3,a3,0x4
      c2 = MSCALE (c1d4 * (a2 + a1));
    131c:	00069100 	sll	s2,a2,0x4
      /* First Butterfly on even terms. */

      a0 = MSCALE (c1d4 * (b0 + b1));
      a1 = MSCALE (c1d4 * (b0 - b1));

      a2 = MSCALE ((c3d8 * b2) - (c1d8 * b3));
    1320:	03d8f023 	subu	s8,s8,t8
      a3 = MSCALE ((c1d8 * b2) + (c3d8 * b3));
    1324:	0299a023 	subu	s4,s4,t9
      a1 = c0 - c1;
      a2 = c3 - c2;
      a3 = c3 + c2;

      c0 = a0;
      c1 = MSCALE (c1d4 * (a2 - a1));
    1328:	00077880 	sll	t7,a3,0x2
      c2 = MSCALE (c1d4 * (a2 + a1));
    132c:	00067080 	sll	t6,a2,0x2
      a1 = c0 - c1;
      a2 = c3 - c2;
      a3 = c3 + c2;

      c0 = a0;
      c1 = MSCALE (c1d4 * (a2 - a1));
    1330:	026f7823 	subu	t7,s3,t7
      c2 = MSCALE (c1d4 * (a2 + a1));
    1334:	024e7023 	subu	t6,s2,t6
      /* First Butterfly on even terms. */

      a0 = MSCALE (c1d4 * (b0 + b1));
      a1 = MSCALE (c1d4 * (b0 - b1));

      a2 = MSCALE ((c3d8 * b2) - (c1d8 * b3));
    1338:	02f9c823 	subu	t9,s7,t9
      a3 = MSCALE ((c1d8 * b2) + (c3d8 * b3));
    133c:	02b8c023 	subu	t8,s5,t8
      c2 = MSCALE ((c3d16 * a1) + (c5d16 * a2));
      c3 = MSCALE ((c1d16 * a0) + (c7d16 * a3));

      /* First Butterfly on even terms. */

      a0 = MSCALE (c1d4 * (b0 + b1));
    1340:	00119900 	sll	s3,s1,0x4
      a1 = MSCALE (c1d4 * (b0 - b1));
    1344:	00109100 	sll	s2,s0,0x4

      a2 = MSCALE ((c3d8 * b2) - (c1d8 * b3));
    1348:	03c4f023 	subu	s8,s8,a0
      a3 = MSCALE ((c1d8 * b2) + (c3d8 * b3));
    134c:	0283a023 	subu	s4,s4,v1
      c2 = MSCALE ((c3d16 * a1) + (c5d16 * a2));
      c3 = MSCALE ((c1d16 * a0) + (c7d16 * a3));

      /* First Butterfly on even terms. */

      a0 = MSCALE (c1d4 * (b0 + b1));
    1350:	02718823 	subu	s1,s3,s1
      a1 = MSCALE (c1d4 * (b0 - b1));
    1354:	02508023 	subu	s0,s2,s0

      a2 = MSCALE ((c3d8 * b2) - (c1d8 * b3));
    1358:	001ef0c0 	sll	s8,s8,0x3
    135c:	0019b8c0 	sll	s7,t9,0x3
      a3 = MSCALE ((c1d8 * b2) + (c3d8 * b3));
    1360:	0018a8c0 	sll	s5,t8,0x3
    1364:	0014a0c0 	sll	s4,s4,0x3
      a1 = c0 - c1;
      a2 = c3 - c2;
      a3 = c3 + c2;

      c0 = a0;
      c1 = MSCALE (c1d4 * (a2 - a1));
    1368:	000f9900 	sll	s3,t7,0x4
      c2 = MSCALE (c1d4 * (a2 + a1));
    136c:	000e9100 	sll	s2,t6,0x4
      c3 = MSCALE ((c1d16 * a0) + (c7d16 * a3));

      /* First Butterfly on even terms. */

      a0 = MSCALE (c1d4 * (b0 + b1));
      a1 = MSCALE (c1d4 * (b0 - b1));
    1370:	02088021 	addu	s0,s0,t0

      a2 = MSCALE ((c3d8 * b2) - (c1d8 * b3));
      a3 = MSCALE ((c1d8 * b2) + (c3d8 * b3));
    1374:	02831821 	addu	v1,s4,v1
      a1 = c0 - c1;
      a2 = c3 - c2;
      a3 = c3 + c2;

      c0 = a0;
      c1 = MSCALE (c1d4 * (a2 - a1));
    1378:	026f7823 	subu	t7,s3,t7
      c2 = MSCALE (c1d4 * (a2 + a1));
    137c:	024e7023 	subu	t6,s2,t6
      c2 = MSCALE ((c3d16 * a1) + (c5d16 * a2));
      c3 = MSCALE ((c1d16 * a0) + (c7d16 * a3));

      /* First Butterfly on even terms. */

      a0 = MSCALE (c1d4 * (b0 + b1));
    1380:	02294821 	addu	t1,s1,t1
      a1 = MSCALE (c1d4 * (b0 - b1));

      a2 = MSCALE ((c3d8 * b2) - (c1d8 * b3));
    1384:	03c42021 	addu	a0,s8,a0
    1388:	02f9c823 	subu	t9,s7,t9
      a3 = MSCALE ((c1d8 * b2) + (c3d8 * b3));
    138c:	02b8c023 	subu	t8,s5,t8
    1390:	0303c021 	addu	t8,t8,v1
      a1 = c0 - c1;
      a2 = c3 - c2;
      a3 = c3 + c2;

      c0 = a0;
      c1 = MSCALE (c1d4 * (a2 - a1));
    1394:	01e73821 	addu	a3,t7,a3
      c2 = MSCALE (c1d4 * (a2 + a1));
    1398:	01c63021 	addu	a2,t6,a2
      c2 = MSCALE ((c3d16 * a1) + (c5d16 * a2));
      c3 = MSCALE ((c1d16 * a0) + (c7d16 * a3));

      /* First Butterfly on even terms. */

      a0 = MSCALE (c1d4 * (b0 + b1));
    139c:	00094840 	sll	t1,t1,0x1
      a1 = MSCALE (c1d4 * (b0 - b1));
    13a0:	00108040 	sll	s0,s0,0x1

      a2 = MSCALE ((c3d8 * b2) - (c1d8 * b3));
    13a4:	03242023 	subu	a0,t9,a0
      c2 = MSCALE ((c3d16 * a1) + (c5d16 * a2));
      c3 = MSCALE ((c1d16 * a0) + (c7d16 * a3));

      /* First Butterfly on even terms. */

      a0 = MSCALE (c1d4 * (b0 + b1));
    13a8:	00094a43 	sra	t1,t1,0x9
      a1 = MSCALE (c1d4 * (b0 - b1));
    13ac:	00108243 	sra	s0,s0,0x9

      a2 = MSCALE ((c3d8 * b2) - (c1d8 * b3));
    13b0:	00042243 	sra	a0,a0,0x9
      a3 = MSCALE ((c1d8 * b2) + (c3d8 * b3));
    13b4:	0018c243 	sra	t8,t8,0x9
      a1 = c0 - c1;
      a2 = c3 - c2;
      a3 = c3 + c2;

      c0 = a0;
      c1 = MSCALE (c1d4 * (a2 - a1));
    13b8:	00073840 	sll	a3,a3,0x1
      c2 = MSCALE (c1d4 * (a2 + a1));
    13bc:	00063040 	sll	a2,a2,0x1
      a2 = MSCALE ((c3d8 * b2) - (c1d8 * b3));
      a3 = MSCALE ((c1d8 * b2) + (c3d8 * b3));

      /* Calculate last set of b's */

      b0 = a0 + a3;
    13c0:	03091821 	addu	v1,t8,t1
      b1 = a1 + a2;
    13c4:	00907021 	addu	t6,a0,s0
      b2 = a1 - a2;
      b3 = a0 - a3;

      /* Second Butterfly */

      a0 = c0 + c1;
    13c8:	01ac6021 	addu	t4,t5,t4
      a1 = c0 - c1;
      a2 = c3 - c2;
      a3 = c3 + c2;
    13cc:	016a5021 	addu	t2,t3,t2

      /* Calculate last set of b's */

      b0 = a0 + a3;
      b1 = a1 + a2;
      b2 = a1 - a2;
    13d0:	02042023 	subu	a0,s0,a0
      b3 = a0 - a3;
    13d4:	01384823 	subu	t1,t1,t8
      a1 = c0 - c1;
      a2 = c3 - c2;
      a3 = c3 + c2;

      c0 = a0;
      c1 = MSCALE (c1d4 * (a2 - a1));
    13d8:	00073a43 	sra	a3,a3,0x9
      c2 = MSCALE (c1d4 * (a2 + a1));
    13dc:	00063243 	sra	a2,a2,0x9
      c3 = a3;

      aptr = y + LS (i, 3);
      *(aptr++) = b0 + c3;
    13e0:	01437821 	addu	t7,t2,v1
      *(aptr++) = b1 + c2;
    13e4:	00ce6821 	addu	t5,a2,t6
      *(aptr++) = b2 + c1;
    13e8:	00e45821 	addu	t3,a3,a0
      *(aptr++) = b3 + c0;
    13ec:	01894021 	addu	t0,t4,t1
      *(aptr++) = b3 - c0;
      *(aptr++) = b2 - c1;
    13f0:	00873823 	subu	a3,a0,a3
      aptr = y + LS (i, 3);
      *(aptr++) = b0 + c3;
      *(aptr++) = b1 + c2;
      *(aptr++) = b2 + c1;
      *(aptr++) = b3 + c0;
      *(aptr++) = b3 - c0;
    13f4:	012c6023 	subu	t4,t1,t4
      *(aptr++) = b2 - c1;
      *(aptr++) = b1 - c2;
    13f8:	01c63023 	subu	a2,t6,a2
      *(aptr) = b0 - c3;
    13fc:	006a5023 	subu	t2,v1,t2
      *aptr = b0 - c3;
    }

  /* Loop over rows */

  for (i = 0; i < 8; i++)
    1400:	24a50001 	addiu	a1,a1,1
      c1 = MSCALE (c1d4 * (a2 - a1));
      c2 = MSCALE (c1d4 * (a2 + a1));
      c3 = a3;

      aptr = y + LS (i, 3);
      *(aptr++) = b0 + c3;
    1404:	ac4f0000 	sw	t7,0(v0)
      *(aptr++) = b1 + c2;
    1408:	ac4d0004 	sw	t5,4(v0)
      *(aptr++) = b2 + c1;
    140c:	ac4b0008 	sw	t3,8(v0)
      *(aptr++) = b3 + c0;
    1410:	ac48000c 	sw	t0,12(v0)
      *(aptr++) = b3 - c0;
    1414:	ac4c0010 	sw	t4,16(v0)
      *(aptr++) = b2 - c1;
    1418:	ac470014 	sw	a3,20(v0)
      *(aptr++) = b1 - c2;
    141c:	ac460018 	sw	a2,24(v0)
      *aptr = b0 - c3;
    }

  /* Loop over rows */

  for (i = 0; i < 8; i++)
    1420:	14b6ff78 	bne	a1,s6,1204 <ChenIDct+0x280>
    1424:	ac4a001c 	sw	t2,28(v0)
    1428:	8fa2002c 	lw	v0,44(sp)
    142c:	08000512 	j	1448 <ChenIDct+0x4c4>
    1430:	24040040 	addiu	a0,zero,64
     Retrieve correct accuracy. We have additional factor
     of 16 that must be removed.
   */

  for (i = 0, aptr = y; i < 64; i++, aptr++)
    *aptr = (((*aptr < 0) ? (*aptr - 8) : (*aptr + 8)) / 16);
    1434:	00051903 	sra	v1,a1,0x4
    1438:	2484ffff 	addiu	a0,a0,-1
  /*
     Retrieve correct accuracy. We have additional factor
     of 16 that must be removed.
   */

  for (i = 0, aptr = y; i < 64; i++, aptr++)
    143c:	1080000e 	beqz	a0,1478 <ChenIDct+0x4f4>
    1440:	ac430000 	sw	v1,0(v0)
    1444:	24420004 	addiu	v0,v0,4
    *aptr = (((*aptr < 0) ? (*aptr - 8) : (*aptr + 8)) / 16);
    1448:	8c430000 	lw	v1,0(v0)
    144c:	00000000 	sll	zero,zero,0x0
    1450:	0461fff8 	bgez	v1,1434 <ChenIDct+0x4b0>
    1454:	24650008 	addiu	a1,v1,8
    1458:	2465fff8 	addiu	a1,v1,-8
    145c:	04a1fff5 	bgez	a1,1434 <ChenIDct+0x4b0>
    1460:	00000000 	sll	zero,zero,0x0
    1464:	24650007 	addiu	a1,v1,7
    1468:	00051903 	sra	v1,a1,0x4
    146c:	2484ffff 	addiu	a0,a0,-1
  /*
     Retrieve correct accuracy. We have additional factor
     of 16 that must be removed.
   */

  for (i = 0, aptr = y; i < 64; i++, aptr++)
    1470:	1480fff4 	bnez	a0,1444 <ChenIDct+0x4c0>
    1474:	ac430000 	sw	v1,0(v0)
    *aptr = (((*aptr < 0) ? (*aptr - 8) : (*aptr + 8)) / 16);
}
    1478:	8fbe0024 	lw	s8,36(sp)
    147c:	8fb70020 	lw	s7,32(sp)
    1480:	8fb6001c 	lw	s6,28(sp)
    1484:	8fb50018 	lw	s5,24(sp)
    1488:	8fb40014 	lw	s4,20(sp)
    148c:	8fb30010 	lw	s3,16(sp)
    1490:	8fb2000c 	lw	s2,12(sp)
    1494:	8fb10008 	lw	s1,8(sp)
    1498:	8fb00004 	lw	s0,4(sp)
    149c:	03e00008 	jr	ra
    14a0:	27bd0028 	addiu	sp,sp,40

000014a4 <IZigzagMatrix>:
 * IZigzagMatrix() performs an inverse zig-zag translation on the
 * input imatrix and places the output in omatrix.
 */
void
IZigzagMatrix (int *imatrix, int *omatrix)
{
    14a4:	3c020000 	lui	v0,0x0
    14a8:	24420000 	addiu	v0,v0,0
/*
 * IZigzagMatrix() performs an inverse zig-zag translation on the
 * input imatrix and places the output in omatrix.
 */
void
IZigzagMatrix (int *imatrix, int *omatrix)
    14ac:	24460100 	addiu	a2,v0,256

  for (i = 0; i < DCTSIZE2; i++)
    
    {
      
*(omatrix++) = imatrix[zigzag_index[i]];
    14b0:	8c430000 	lw	v1,0(v0)
    14b4:	24420004 	addiu	v0,v0,4
    14b8:	00031880 	sll	v1,v1,0x2
    14bc:	00831821 	addu	v1,a0,v1
    14c0:	8c630000 	lw	v1,0(v1)
    14c4:	00000000 	sll	zero,zero,0x0
    14c8:	aca30000 	sw	v1,0(a1)
void
IZigzagMatrix (int *imatrix, int *omatrix)
{
  int i;

  for (i = 0; i < DCTSIZE2; i++)
    14cc:	1446fff8 	bne	v0,a2,14b0 <IZigzagMatrix+0xc>
    14d0:	24a50004 	addiu	a1,a1,4
    {
      
*(omatrix++) = imatrix[zigzag_index[i]];
    
}
}
    14d4:	03e00008 	jr	ra
    14d8:	00000000 	sll	zero,zero,0x0

000014dc <IQuantize>:
void
IQuantize (int *matrix, int *qmatrix)
{
  int *mptr;

  for (mptr = matrix; mptr < matrix + DCTSIZE2; mptr++)
    14dc:	24020040 	addiu	v0,zero,64
    {
      *mptr = *mptr * (*qmatrix);
    14e0:	8ca30000 	lw	v1,0(a1)
    14e4:	8c860000 	lw	a2,0(a0)
void
IQuantize (int *matrix, int *qmatrix)
{
  int *mptr;

  for (mptr = matrix; mptr < matrix + DCTSIZE2; mptr++)
    14e8:	2442ffff 	addiu	v0,v0,-1
    {
      *mptr = *mptr * (*qmatrix);
    14ec:	00c30018 	mult	a2,v1
      qmatrix++;
    14f0:	24a50004 	addiu	a1,a1,4
{
  int *mptr;

  for (mptr = matrix; mptr < matrix + DCTSIZE2; mptr++)
    {
      *mptr = *mptr * (*qmatrix);
    14f4:	00001812 	mflo	v1
    14f8:	ac830000 	sw	v1,0(a0)
void
IQuantize (int *matrix, int *qmatrix)
{
  int *mptr;

  for (mptr = matrix; mptr < matrix + DCTSIZE2; mptr++)
    14fc:	1440fff8 	bnez	v0,14e0 <IQuantize+0x4>
    1500:	24840004 	addiu	a0,a0,4
    {
      *mptr = *mptr * (*qmatrix);
      qmatrix++;
    }
}
    1504:	03e00008 	jr	ra
    1508:	00000000 	sll	zero,zero,0x0

0000150c <PostshiftIDctMatrix>:
 */
void
PostshiftIDctMatrix (int *matrix, int shift)
{
  int *mptr;
  for (mptr = matrix; mptr < matrix + DCTSIZE2; mptr++)
    150c:	24020040 	addiu	v0,zero,64
    {
      *mptr += shift;
    1510:	8c830000 	lw	v1,0(a0)
 */
void
PostshiftIDctMatrix (int *matrix, int shift)
{
  int *mptr;
  for (mptr = matrix; mptr < matrix + DCTSIZE2; mptr++)
    1514:	2442ffff 	addiu	v0,v0,-1
    {
      *mptr += shift;
    1518:	00651821 	addu	v1,v1,a1
    151c:	ac830000 	sw	v1,0(a0)
 */
void
PostshiftIDctMatrix (int *matrix, int shift)
{
  int *mptr;
  for (mptr = matrix; mptr < matrix + DCTSIZE2; mptr++)
    1520:	1440fffb 	bnez	v0,1510 <PostshiftIDctMatrix+0x4>
    1524:	24840004 	addiu	a0,a0,4
    {
      *mptr += shift;
    }
}
    1528:	03e00008 	jr	ra
    152c:	00000000 	sll	zero,zero,0x0

00001530 <BoundIDctMatrix>:
void
BoundIDctMatrix (int *matrix, int Bound)
{
  int *mptr;

  for (mptr = matrix; mptr < matrix + DCTSIZE2; mptr++)
    1530:	08000554 	j	1550 <BoundIDctMatrix+0x20>
    1534:	24020040 	addiu	v0,zero,64
    {
      if (*mptr < 0)
	{
	  *mptr = 0;
	}
      else if (*mptr > Bound)
    1538:	10c00002 	beqz	a2,1544 <BoundIDctMatrix+0x14>
    153c:	00000000 	sll	zero,zero,0x0
	{
	  *mptr = Bound;
    1540:	ac850000 	sw	a1,0(a0)
void
BoundIDctMatrix (int *matrix, int Bound)
{
  int *mptr;

  for (mptr = matrix; mptr < matrix + DCTSIZE2; mptr++)
    1544:	2442ffff 	addiu	v0,v0,-1
    1548:	10400009 	beqz	v0,1570 <BoundIDctMatrix+0x40>
    154c:	24840004 	addiu	a0,a0,4
    {
      if (*mptr < 0)
    1550:	8c830000 	lw	v1,0(a0)
    1554:	00000000 	sll	zero,zero,0x0
    1558:	0461fff7 	bgez	v1,1538 <BoundIDctMatrix+0x8>
    155c:	00a3302a 	slt	a2,a1,v1
void
BoundIDctMatrix (int *matrix, int Bound)
{
  int *mptr;

  for (mptr = matrix; mptr < matrix + DCTSIZE2; mptr++)
    1560:	2442ffff 	addiu	v0,v0,-1
    {
      if (*mptr < 0)
	{
	  *mptr = 0;
    1564:	ac800000 	sw	zero,0(a0)
void
BoundIDctMatrix (int *matrix, int Bound)
{
  int *mptr;

  for (mptr = matrix; mptr < matrix + DCTSIZE2; mptr++)
    1568:	1440fff9 	bnez	v0,1550 <BoundIDctMatrix+0x20>
    156c:	24840004 	addiu	a0,a0,4
      else if (*mptr > Bound)
	{
	  *mptr = Bound;
	}
    }
}
    1570:	03e00008 	jr	ra
    1574:	00000000 	sll	zero,zero,0x0

00001578 <WriteOneBlock>:


void
WriteOneBlock (int *store, char *out_buf, int width, int height,
	       int voffs, int hoffs)
{
    1578:	8fa20010 	lw	v0,16(sp)
    157c:	8fa80014 	lw	t0,20(sp)


  /* Find vertical buffer offs. */
  for (i = voffs; i < voffs + DCTSIZE; i++)
    {
      if (i < height)
    1580:	0047182a 	slt	v1,v0,a3
    1584:	1060001a 	beqz	v1,15f0 <WriteOneBlock+0x78>
    1588:	24490007 	addiu	t1,v0,7
}



void
WriteOneBlock (int *store, char *out_buf, int width, int height,
    158c:	00460018 	mult	v0,a2


  /* Find vertical buffer offs. */
  for (i = voffs; i < voffs + DCTSIZE; i++)
    {
      if (i < height)
    1590:	250e0007 	addiu	t6,t0,7
    1594:	0106782a 	slt	t7,t0,a2
}



void
WriteOneBlock (int *store, char *out_buf, int width, int height,
    1598:	00001812 	mflo	v1
    159c:	00681821 	addu	v1,v1,t0
    15a0:	00a32821 	addu	a1,a1,v1
	{
	  int diff;
	  diff = width * i;
	  for (e = hoffs; e < hoffs + DCTSIZE; e++)
	    {
	      if (e < width)
    15a4:	11e0000c 	beqz	t7,15d8 <WriteOneBlock+0x60>
    15a8:	01001821 	addu	v1,t0,zero
    15ac:	0800056f 	j	15bc <WriteOneBlock+0x44>
    15b0:	00a05021 	addu	t2,a1,zero
    15b4:	11a00008 	beqz	t5,15d8 <WriteOneBlock+0x60>
    15b8:	254a0001 	addiu	t2,t2,1
		{
		  out_buf[diff + e] = (unsigned char) (*(store++));
    15bc:	8c8c0000 	lw	t4,0(a0)
    {
      if (i < height)
	{
	  int diff;
	  diff = width * i;
	  for (e = hoffs; e < hoffs + DCTSIZE; e++)
    15c0:	24630001 	addiu	v1,v1,1
    15c4:	01c3582a 	slt	t3,t6,v1
	    {
	      if (e < width)
    15c8:	0066682a 	slt	t5,v1,a2
		{
		  out_buf[diff + e] = (unsigned char) (*(store++));
    15cc:	a14c0000 	sb	t4,0(t2)
    {
      if (i < height)
	{
	  int diff;
	  diff = width * i;
	  for (e = hoffs; e < hoffs + DCTSIZE; e++)
    15d0:	1160fff8 	beqz	t3,15b4 <WriteOneBlock+0x3c>
    15d4:	24840004 	addiu	a0,a0,4
{
  int i, e;


  /* Find vertical buffer offs. */
  for (i = voffs; i < voffs + DCTSIZE; i++)
    15d8:	24420001 	addiu	v0,v0,1
    15dc:	0122182a 	slt	v1,t1,v0
    15e0:	14600003 	bnez	v1,15f0 <WriteOneBlock+0x78>
    15e4:	0047182a 	slt	v1,v0,a3
    {
      if (i < height)
    15e8:	1460ffee 	bnez	v1,15a4 <WriteOneBlock+0x2c>
    15ec:	00a62821 	addu	a1,a1,a2
    15f0:	03e00008 	jr	ra
    15f4:	00000000 	sll	zero,zero,0x0

000015f8 <WriteBlock>:
  int voffs, hoffs;

  /*
   * Get vertical offsets
   */
  voffs = *p_out_vpos * DCTSIZE;
    15f8:	8ca20000 	lw	v0,0(a1)
  hoffs = *p_out_hpos * DCTSIZE;

  /*
   * Write block
   */
  WriteOneBlock (store,
    15fc:	87830000 	lh	v1,0(gp)
  int voffs, hoffs;

  /*
   * Get vertical offsets
   */
  voffs = *p_out_vpos * DCTSIZE;
    1600:	000210c0 	sll	v0,v0,0x3


  /* Find vertical buffer offs. */
  for (i = voffs; i < voffs + DCTSIZE; i++)
    {
      if (i < height)
    1604:	0043282a 	slt	a1,v0,v1

  /*
   * Get vertical offsets
   */
  voffs = *p_out_vpos * DCTSIZE;
  hoffs = *p_out_hpos * DCTSIZE;
    1608:	8cca0000 	lw	t2,0(a2)

  /*
   * Write block
   */
  WriteOneBlock (store,
    160c:	87880000 	lh	t0,0(gp)


  /* Find vertical buffer offs. */
  for (i = voffs; i < voffs + DCTSIZE; i++)
    {
      if (i < height)
    1610:	10a0001b 	beqz	a1,1680 <WriteBlock+0x88>
    1614:	24490007 	addiu	t1,v0,7
 * stored in row-major form, that is, the first row of (8) elements, the
 * second row of (8) elements....
 * ONLY for MCU 1:1:1
 */
void
WriteBlock (int *store, int *p_out_vpos, int *p_out_hpos,
    1618:	00480018 	mult	v0,t0

  /*
   * Get vertical offsets
   */
  voffs = *p_out_vpos * DCTSIZE;
  hoffs = *p_out_hpos * DCTSIZE;
    161c:	000a50c0 	sll	t2,t2,0x3
    1620:	254f0007 	addiu	t7,t2,7
    1624:	0148c02a 	slt	t8,t2,t0
 * stored in row-major form, that is, the first row of (8) elements, the
 * second row of (8) elements....
 * ONLY for MCU 1:1:1
 */
void
WriteBlock (int *store, int *p_out_vpos, int *p_out_hpos,
    1628:	00002812 	mflo	a1
    162c:	00aa2821 	addu	a1,a1,t2
    1630:	00e53821 	addu	a3,a3,a1
	{
	  int diff;
	  diff = width * i;
	  for (e = hoffs; e < hoffs + DCTSIZE; e++)
	    {
	      if (e < width)
    1634:	1300000c 	beqz	t8,1668 <WriteBlock+0x70>
    1638:	01402821 	addu	a1,t2,zero
    163c:	08000593 	j	164c <WriteBlock+0x54>
    1640:	00e05821 	addu	t3,a3,zero
    1644:	11c00008 	beqz	t6,1668 <WriteBlock+0x70>
    1648:	256b0001 	addiu	t3,t3,1
		{
		  out_buf[diff + e] = (unsigned char) (*(store++));
    164c:	8c8d0000 	lw	t5,0(a0)
    {
      if (i < height)
	{
	  int diff;
	  diff = width * i;
	  for (e = hoffs; e < hoffs + DCTSIZE; e++)
    1650:	24a50001 	addiu	a1,a1,1
    1654:	01e5602a 	slt	t4,t7,a1
	    {
	      if (e < width)
    1658:	00a8702a 	slt	t6,a1,t0
		{
		  out_buf[diff + e] = (unsigned char) (*(store++));
    165c:	a16d0000 	sb	t5,0(t3)
    {
      if (i < height)
	{
	  int diff;
	  diff = width * i;
	  for (e = hoffs; e < hoffs + DCTSIZE; e++)
    1660:	1180fff8 	beqz	t4,1644 <WriteBlock+0x4c>
    1664:	24840004 	addiu	a0,a0,4
{
  int i, e;


  /* Find vertical buffer offs. */
  for (i = voffs; i < voffs + DCTSIZE; i++)
    1668:	24420001 	addiu	v0,v0,1
    166c:	0122282a 	slt	a1,t1,v0
    1670:	14a00003 	bnez	a1,1680 <WriteBlock+0x88>
    1674:	0043282a 	slt	a1,v0,v1
    {
      if (i < height)
    1678:	14a0ffee 	bnez	a1,1634 <WriteBlock+0x3c>
    167c:	00e83821 	addu	a3,a3,t0
   *  Add positions
   */
  *p_out_hpos++;
  *p_out_vpos++;

  if (*p_out_hpos < p_jinfo_MCUWidth)
    1680:	8cc30004 	lw	v1,4(a2)
    1684:	8f820000 	lw	v0,0(gp)
    1688:	00000000 	sll	zero,zero,0x0
    168c:	0062102a 	slt	v0,v1,v0
    1690:	14400002 	bnez	v0,169c <WriteBlock+0xa4>
    1694:	00000000 	sll	zero,zero,0x0
    {
      *p_out_vpos--;
    }
  else
    {
      *p_out_hpos = 0;		/* If at end of image (width) */
    1698:	acc00004 	sw	zero,4(a2)
    169c:	03e00008 	jr	ra
    16a0:	00000000 	sll	zero,zero,0x0

000016a4 <Write4Blocks>:
 *  4:1:1
 */
void
Write4Blocks (int *store1, int *store2, int *store3, int *store4,
	      int *p_out_vpos, int *p_out_hpos, unsigned char *p_out_buf)
{
    16a4:	27bdffe8 	addiu	sp,sp,-24
    16a8:	8fa90028 	lw	t1,40(sp)
    16ac:	8fa8002c 	lw	t0,44(sp)

  /*
   * OX
   * XX
   */
  voffs = *p_out_vpos * DCTSIZE;
    16b0:	8d230000 	lw	v1,0(t1)
  hoffs = *p_out_hpos * DCTSIZE;
  WriteOneBlock (store1, p_out_buf,
    16b4:	87820000 	lh	v0,0(gp)

  /*
   * OX
   * XX
   */
  voffs = *p_out_vpos * DCTSIZE;
    16b8:	000318c0 	sll	v1,v1,0x3
  hoffs = *p_out_hpos * DCTSIZE;
    16bc:	8d0b0000 	lw	t3,0(t0)


  /* Find vertical buffer offs. */
  for (i = voffs; i < voffs + DCTSIZE; i++)
    {
      if (i < height)
    16c0:	0062502a 	slt	t2,v1,v0
 *  4:1:1
 */
void
Write4Blocks (int *store1, int *store2, int *store3, int *store4,
	      int *p_out_vpos, int *p_out_hpos, unsigned char *p_out_buf)
{
    16c4:	afb40014 	sw	s4,20(sp)
    16c8:	afb30010 	sw	s3,16(sp)
    16cc:	afb2000c 	sw	s2,12(sp)
    16d0:	afb10008 	sw	s1,8(sp)
    16d4:	afb00004 	sw	s0,4(sp)
    16d8:	8fae0030 	lw	t6,48(sp)
  /*
   * OX
   * XX
   */
  voffs = *p_out_vpos * DCTSIZE;
  hoffs = *p_out_hpos * DCTSIZE;
    16dc:	000b58c0 	sll	t3,t3,0x3
  WriteOneBlock (store1, p_out_buf,
    16e0:	878c0000 	lh	t4,0(gp)


  /* Find vertical buffer offs. */
  for (i = voffs; i < voffs + DCTSIZE; i++)
    {
      if (i < height)
    16e4:	11400096 	beqz	t2,1940 <Write4Blocks+0x29c>
    16e8:	246d0007 	addiu	t5,v1,7

/*
 *  4:1:1
 */
void
Write4Blocks (int *store1, int *store2, int *store3, int *store4,
    16ec:	006c0018 	mult	v1,t4


  /* Find vertical buffer offs. */
  for (i = voffs; i < voffs + DCTSIZE; i++)
    {
      if (i < height)
    16f0:	25710007 	addiu	s1,t3,7

/*
 *  4:1:1
 */
void
Write4Blocks (int *store1, int *store2, int *store3, int *store4,
    16f4:	00609021 	addu	s2,v1,zero
    16f8:	016ca02a 	slt	s4,t3,t4
    16fc:	00009812 	mflo	s3
    1700:	026b9821 	addu	s3,s3,t3
    1704:	01d39821 	addu	s3,t6,s3
	{
	  int diff;
	  diff = width * i;
	  for (e = hoffs; e < hoffs + DCTSIZE; e++)
	    {
	      if (e < width)
    1708:	1280000c 	beqz	s4,173c <Write4Blocks+0x98>
    170c:	01605021 	addu	t2,t3,zero
    1710:	080005c8 	j	1720 <Write4Blocks+0x7c>
    1714:	02607821 	addu	t7,s3,zero
    1718:	12000008 	beqz	s0,173c <Write4Blocks+0x98>
    171c:	25ef0001 	addiu	t7,t7,1
		{
		  out_buf[diff + e] = (unsigned char) (*(store++));
    1720:	8c990000 	lw	t9,0(a0)
    {
      if (i < height)
	{
	  int diff;
	  diff = width * i;
	  for (e = hoffs; e < hoffs + DCTSIZE; e++)
    1724:	254a0001 	addiu	t2,t2,1
    1728:	022ac02a 	slt	t8,s1,t2
	    {
	      if (e < width)
    172c:	014c802a 	slt	s0,t2,t4
		{
		  out_buf[diff + e] = (unsigned char) (*(store++));
    1730:	a1f90000 	sb	t9,0(t7)
    {
      if (i < height)
	{
	  int diff;
	  diff = width * i;
	  for (e = hoffs; e < hoffs + DCTSIZE; e++)
    1734:	1300fff8 	beqz	t8,1718 <Write4Blocks+0x74>
    1738:	24840004 	addiu	a0,a0,4
{
  int i, e;


  /* Find vertical buffer offs. */
  for (i = voffs; i < voffs + DCTSIZE; i++)
    173c:	26520001 	addiu	s2,s2,1
    1740:	01b2502a 	slt	t2,t5,s2
    1744:	15400003 	bnez	t2,1754 <Write4Blocks+0xb0>
    1748:	0242502a 	slt	t2,s2,v0
    {
      if (i < height)
    174c:	1540ffee 	bnez	t2,1708 <Write4Blocks+0x64>
    1750:	026c9821 	addu	s3,s3,t4
  /*
   * XO
   * XX
   */
  hoffs += DCTSIZE;
  WriteOneBlock (store2, p_out_buf,
    1754:	87820000 	lh	v0,0(gp)
    1758:	00000000 	sll	zero,zero,0x0


  /* Find vertical buffer offs. */
  for (i = voffs; i < voffs + DCTSIZE; i++)
    {
      if (i < height)
    175c:	0062202a 	slt	a0,v1,v0
  /*
   * XO
   * XX
   */
  hoffs += DCTSIZE;
  WriteOneBlock (store2, p_out_buf,
    1760:	878c0000 	lh	t4,0(gp)


  /* Find vertical buffer offs. */
  for (i = voffs; i < voffs + DCTSIZE; i++)
    {
      if (i < height)
    1764:	1080001d 	beqz	a0,17dc <Write4Blocks+0x138>
    1768:	256a0008 	addiu	t2,t3,8

/*
 *  4:1:1
 */
void
Write4Blocks (int *store1, int *store2, int *store3, int *store4,
    176c:	006c0018 	mult	v1,t4


  /* Find vertical buffer offs. */
  for (i = voffs; i < voffs + DCTSIZE; i++)
    {
      if (i < height)
    1770:	2571000f 	addiu	s1,t3,15

/*
 *  4:1:1
 */
void
Write4Blocks (int *store1, int *store2, int *store3, int *store4,
    1774:	00609021 	addu	s2,v1,zero
    1778:	014ca02a 	slt	s4,t2,t4
    177c:	00009812 	mflo	s3
    1780:	026b9821 	addu	s3,s3,t3
    1784:	01d39821 	addu	s3,t6,s3
	{
	  int diff;
	  diff = width * i;
	  for (e = hoffs; e < hoffs + DCTSIZE; e++)
	    {
	      if (e < width)
    1788:	1280000c 	beqz	s4,17bc <Write4Blocks+0x118>
    178c:	01402021 	addu	a0,t2,zero
    1790:	080005e8 	j	17a0 <Write4Blocks+0xfc>
    1794:	02607821 	addu	t7,s3,zero
    1798:	12000008 	beqz	s0,17bc <Write4Blocks+0x118>
    179c:	25ef0001 	addiu	t7,t7,1
		{
		  out_buf[diff + e] = (unsigned char) (*(store++));
    17a0:	8cb90000 	lw	t9,0(a1)
    {
      if (i < height)
	{
	  int diff;
	  diff = width * i;
	  for (e = hoffs; e < hoffs + DCTSIZE; e++)
    17a4:	24840001 	addiu	a0,a0,1
    17a8:	0224c02a 	slt	t8,s1,a0
	    {
	      if (e < width)
    17ac:	008c802a 	slt	s0,a0,t4
		{
		  out_buf[diff + e] = (unsigned char) (*(store++));
    17b0:	a1f90008 	sb	t9,8(t7)
    {
      if (i < height)
	{
	  int diff;
	  diff = width * i;
	  for (e = hoffs; e < hoffs + DCTSIZE; e++)
    17b4:	1300fff8 	beqz	t8,1798 <Write4Blocks+0xf4>
    17b8:	24a50004 	addiu	a1,a1,4
{
  int i, e;


  /* Find vertical buffer offs. */
  for (i = voffs; i < voffs + DCTSIZE; i++)
    17bc:	26520001 	addiu	s2,s2,1
    17c0:	01b2202a 	slt	a0,t5,s2
    17c4:	14800003 	bnez	a0,17d4 <Write4Blocks+0x130>
    17c8:	0242202a 	slt	a0,s2,v0
    {
      if (i < height)
    17cc:	1480ffee 	bnez	a0,1788 <Write4Blocks+0xe4>
    17d0:	026c9821 	addu	s3,s3,t4
    17d4:	878c0000 	lh	t4,0(gp)
    17d8:	87820000 	lh	v0,0(gp)

  /*
   * XX
   * OX
   */
  voffs += DCTSIZE;
    17dc:	24640008 	addiu	a0,v1,8


  /* Find vertical buffer offs. */
  for (i = voffs; i < voffs + DCTSIZE; i++)
    {
      if (i < height)
    17e0:	0082282a 	slt	a1,a0,v0
    17e4:	10a00038 	beqz	a1,18c8 <Write4Blocks+0x224>
    17e8:	2463000f 	addiu	v1,v1,15

/*
 *  4:1:1
 */
void
Write4Blocks (int *store1, int *store2, int *store3, int *store4,
    17ec:	008c0018 	mult	a0,t4


  /* Find vertical buffer offs. */
  for (i = voffs; i < voffs + DCTSIZE; i++)
    {
      if (i < height)
    17f0:	25700007 	addiu	s0,t3,7

/*
 *  4:1:1
 */
void
Write4Blocks (int *store1, int *store2, int *store3, int *store4,
    17f4:	00808821 	addu	s1,a0,zero
    17f8:	016c982a 	slt	s3,t3,t4
    17fc:	00009012 	mflo	s2
    1800:	024b9021 	addu	s2,s2,t3
    1804:	01d29021 	addu	s2,t6,s2
	{
	  int diff;
	  diff = width * i;
	  for (e = hoffs; e < hoffs + DCTSIZE; e++)
	    {
	      if (e < width)
    1808:	1260000c 	beqz	s3,183c <Write4Blocks+0x198>
    180c:	01602821 	addu	a1,t3,zero
    1810:	08000608 	j	1820 <Write4Blocks+0x17c>
    1814:	02406821 	addu	t5,s2,zero
    1818:	13200008 	beqz	t9,183c <Write4Blocks+0x198>
    181c:	25ad0001 	addiu	t5,t5,1
		{
		  out_buf[diff + e] = (unsigned char) (*(store++));
    1820:	8cd80000 	lw	t8,0(a2)
    {
      if (i < height)
	{
	  int diff;
	  diff = width * i;
	  for (e = hoffs; e < hoffs + DCTSIZE; e++)
    1824:	24a50001 	addiu	a1,a1,1
    1828:	0205782a 	slt	t7,s0,a1
	    {
	      if (e < width)
    182c:	00acc82a 	slt	t9,a1,t4
		{
		  out_buf[diff + e] = (unsigned char) (*(store++));
    1830:	a1b80000 	sb	t8,0(t5)
    {
      if (i < height)
	{
	  int diff;
	  diff = width * i;
	  for (e = hoffs; e < hoffs + DCTSIZE; e++)
    1834:	11e0fff8 	beqz	t7,1818 <Write4Blocks+0x174>
    1838:	24c60004 	addiu	a2,a2,4
{
  int i, e;


  /* Find vertical buffer offs. */
  for (i = voffs; i < voffs + DCTSIZE; i++)
    183c:	26310001 	addiu	s1,s1,1
    1840:	0071282a 	slt	a1,v1,s1
    1844:	14a00003 	bnez	a1,1854 <Write4Blocks+0x1b0>
    1848:	0222282a 	slt	a1,s1,v0
    {
      if (i < height)
    184c:	14a0ffee 	bnez	a1,1808 <Write4Blocks+0x164>
    1850:	024c9021 	addu	s2,s2,t4
  /*
   * XX
   * XO
   */
  hoffs += DCTSIZE;
  WriteOneBlock (store4,
    1854:	87850000 	lh	a1,0(gp)
    1858:	87820000 	lh	v0,0(gp)


  /* Find vertical buffer offs. */
  for (i = voffs; i < voffs + DCTSIZE; i++)
    {
      if (i < height)
    185c:	0085302a 	slt	a2,a0,a1
    1860:	10c00019 	beqz	a2,18c8 <Write4Blocks+0x224>
    1864:	00820018 	mult	a0,v0
    1868:	25590007 	addiu	t9,t2,7
    186c:	0142802a 	slt	s0,t2,v0

/*
 *  4:1:1
 */
void
Write4Blocks (int *store1, int *store2, int *store3, int *store4,
    1870:	00003012 	mflo	a2
    1874:	00cb5821 	addu	t3,a2,t3
    1878:	01cb7021 	addu	t6,t6,t3
	{
	  int diff;
	  diff = width * i;
	  for (e = hoffs; e < hoffs + DCTSIZE; e++)
	    {
	      if (e < width)
    187c:	1200000c 	beqz	s0,18b0 <Write4Blocks+0x20c>
    1880:	01403021 	addu	a2,t2,zero
    1884:	08000625 	j	1894 <Write4Blocks+0x1f0>
    1888:	01c06021 	addu	t4,t6,zero
    188c:	13000008 	beqz	t8,18b0 <Write4Blocks+0x20c>
    1890:	258c0001 	addiu	t4,t4,1
		{
		  out_buf[diff + e] = (unsigned char) (*(store++));
    1894:	8cef0000 	lw	t7,0(a3)
    {
      if (i < height)
	{
	  int diff;
	  diff = width * i;
	  for (e = hoffs; e < hoffs + DCTSIZE; e++)
    1898:	24c60001 	addiu	a2,a2,1
    189c:	0326682a 	slt	t5,t9,a2
	    {
	      if (e < width)
    18a0:	00c2c02a 	slt	t8,a2,v0
		{
		  out_buf[diff + e] = (unsigned char) (*(store++));
    18a4:	a18f0008 	sb	t7,8(t4)
    {
      if (i < height)
	{
	  int diff;
	  diff = width * i;
	  for (e = hoffs; e < hoffs + DCTSIZE; e++)
    18a8:	11a0fff8 	beqz	t5,188c <Write4Blocks+0x1e8>
    18ac:	24e70004 	addiu	a3,a3,4
{
  int i, e;


  /* Find vertical buffer offs. */
  for (i = voffs; i < voffs + DCTSIZE; i++)
    18b0:	24840001 	addiu	a0,a0,1
    18b4:	0064302a 	slt	a2,v1,a0
    18b8:	14c00003 	bnez	a2,18c8 <Write4Blocks+0x224>
    18bc:	0085302a 	slt	a2,a0,a1
    {
      if (i < height)
    18c0:	14c0ffee 	bnez	a2,187c <Write4Blocks+0x1d8>
    18c4:	01c27021 	addu	t6,t6,v0
		 voffs, hoffs);

  /*
   * Add positions
   */
  *p_out_hpos = *p_out_hpos + 2;
    18c8:	8d020000 	lw	v0,0(t0)
    18cc:	00000000 	sll	zero,zero,0x0
    18d0:	24420002 	addiu	v0,v0,2
    18d4:	ad020000 	sw	v0,0(t0)
  *p_out_vpos = *p_out_vpos + 2;
    18d8:	8d220000 	lw	v0,0(t1)
    18dc:	00000000 	sll	zero,zero,0x0
    18e0:	24430002 	addiu	v1,v0,2
    18e4:	ad230000 	sw	v1,0(t1)


  if (*p_out_hpos < p_jinfo_MCUWidth)
    18e8:	8d040000 	lw	a0,0(t0)
    18ec:	8f830000 	lw	v1,0(gp)
    18f0:	00000000 	sll	zero,zero,0x0
    18f4:	0083182a 	slt	v1,a0,v1
    18f8:	14600009 	bnez	v1,1920 <Write4Blocks+0x27c>
    18fc:	00000000 	sll	zero,zero,0x0
    }
  else
    {
      *p_out_hpos = 0;		/* If at end of image (width) */
    }
}
    1900:	8fb40014 	lw	s4,20(sp)
    1904:	8fb30010 	lw	s3,16(sp)
    1908:	8fb2000c 	lw	s2,12(sp)
    190c:	8fb10008 	lw	s1,8(sp)
    1910:	8fb00004 	lw	s0,4(sp)
    {
      *p_out_vpos = *p_out_vpos - 2;
    }
  else
    {
      *p_out_hpos = 0;		/* If at end of image (width) */
    1914:	ad000000 	sw	zero,0(t0)
    }
}
    1918:	03e00008 	jr	ra
    191c:	27bd0018 	addiu	sp,sp,24
    1920:	8fb40014 	lw	s4,20(sp)
    1924:	8fb30010 	lw	s3,16(sp)
    1928:	8fb2000c 	lw	s2,12(sp)
    192c:	8fb10008 	lw	s1,8(sp)
    1930:	8fb00004 	lw	s0,4(sp)
  *p_out_vpos = *p_out_vpos + 2;


  if (*p_out_hpos < p_jinfo_MCUWidth)
    {
      *p_out_vpos = *p_out_vpos - 2;
    1934:	ad220000 	sw	v0,0(t1)
    }
  else
    {
      *p_out_hpos = 0;		/* If at end of image (width) */
    }
}
    1938:	03e00008 	jr	ra
    193c:	27bd0018 	addiu	sp,sp,24

  /*
   * XO
   * XX
   */
  hoffs += DCTSIZE;
    1940:	080005f7 	j	17dc <Write4Blocks+0x138>
    1944:	256a0008 	addiu	t2,t3,8

00001948 <YuvToRgb>:

/*
 * Transform from Yuv into RGB
 */
void
YuvToRgb (int p, int *y_buf, int *u_buf, int *v_buf)
    1948:	00041200 	sll	v0,a0,0x8
    194c:	00042280 	sll	a0,a0,0xa
    1950:	00822023 	subu	a0,a0,v0
    1954:	3c020000 	lui	v0,0x0
{
    1958:	27bdfff8 	addiu	sp,sp,-8

/*
 * Transform from Yuv into RGB
 */
void
YuvToRgb (int p, int *y_buf, int *u_buf, int *v_buf)
    195c:	24420000 	addiu	v0,v0,0
{
    1960:	afb00004 	sw	s0,4(sp)

/*
 * Transform from Yuv into RGB
 */
void
YuvToRgb (int p, int *y_buf, int *u_buf, int *v_buf)
    1964:	00442021 	addu	a0,v0,a0
    1968:	00004021 	addu	t0,zero,zero
{
  int r, g, b;
  int y, u, v;
  int i;

  for (i = 0; i < DCTSIZE2; i++)
    196c:	240d0100 	addiu	t5,zero,256

/*
 * Transform from Yuv into RGB
 */
void
YuvToRgb (int p, int *y_buf, int *u_buf, int *v_buf)
    1970:	00e81821 	addu	v1,a3,t0
    1974:	00c81021 	addu	v0,a2,t0

  for (i = 0; i < DCTSIZE2; i++)
    {
      y = y_buf[i];
      u = u_buf[i] - 128;
      v = v_buf[i] - 128;
    1978:	8c630000 	lw	v1,0(v1)
  int i;

  for (i = 0; i < DCTSIZE2; i++)
    {
      y = y_buf[i];
      u = u_buf[i] - 128;
    197c:	8c420000 	lw	v0,0(v0)
      v = v_buf[i] - 128;
    1980:	2463ff80 	addiu	v1,v1,-128
  int i;

  for (i = 0; i < DCTSIZE2; i++)
    {
      y = y_buf[i];
      u = u_buf[i] - 128;
    1984:	2442ff80 	addiu	v0,v0,-128
      v = v_buf[i] - 128;

      r = (y * 256 + v * 359 + 128) >> 8;
    1988:	00035940 	sll	t3,v1,0x5
    198c:	000350c0 	sll	t2,v1,0x3

/*
 * Transform from Yuv into RGB
 */
void
YuvToRgb (int p, int *y_buf, int *u_buf, int *v_buf)
    1990:	00a84821 	addu	t1,a1,t0
    {
      y = y_buf[i];
      u = u_buf[i] - 128;
      v = v_buf[i] - 128;

      r = (y * 256 + v * 359 + 128) >> 8;
    1994:	016a5023 	subu	t2,t3,t2
      g = (y * 256 - u * 88 - v * 182 + 128) >> 8;
    1998:	00038100 	sll	s0,v1,0x4
    199c:	00035880 	sll	t3,v1,0x2
      b = (y * 256 + u * 454 + 128) >> 8;
    19a0:	000260c0 	sll	t4,v0,0x3
    19a4:	0002c980 	sll	t9,v0,0x6
    {
      y = y_buf[i];
      u = u_buf[i] - 128;
      v = v_buf[i] - 128;

      r = (y * 256 + v * 359 + 128) >> 8;
    19a8:	8d290000 	lw	t1,0(t1)
    19ac:	000a7100 	sll	t6,t2,0x4
      g = (y * 256 - u * 88 - v * 182 + 128) >> 8;
    19b0:	00027880 	sll	t7,v0,0x2
    19b4:	0002c100 	sll	t8,v0,0x4
    19b8:	020b5823 	subu	t3,s0,t3
      b = (y * 256 + u * 454 + 128) >> 8;
    19bc:	032c6023 	subu	t4,t9,t4
      y = y_buf[i];
      u = u_buf[i] - 128;
      v = v_buf[i] - 128;

      r = (y * 256 + v * 359 + 128) >> 8;
      g = (y * 256 - u * 88 - v * 182 + 128) >> 8;
    19c0:	01635821 	addu	t3,t3,v1
    {
      y = y_buf[i];
      u = u_buf[i] - 128;
      v = v_buf[i] - 128;

      r = (y * 256 + v * 359 + 128) >> 8;
    19c4:	01ca7023 	subu	t6,t6,t2
      g = (y * 256 - u * 88 - v * 182 + 128) >> 8;
      b = (y * 256 + u * 454 + 128) >> 8;
    19c8:	01826021 	addu	t4,t4,v0
    {
      y = y_buf[i];
      u = u_buf[i] - 128;
      v = v_buf[i] - 128;

      r = (y * 256 + v * 359 + 128) >> 8;
    19cc:	00094a00 	sll	t1,t1,0x8
      g = (y * 256 - u * 88 - v * 182 + 128) >> 8;
    19d0:	030f5023 	subu	t2,t8,t7
    {
      y = y_buf[i];
      u = u_buf[i] - 128;
      v = v_buf[i] - 128;

      r = (y * 256 + v * 359 + 128) >> 8;
    19d4:	25290080 	addiu	t1,t1,128
    19d8:	01c31823 	subu	v1,t6,v1
      g = (y * 256 - u * 88 - v * 182 + 128) >> 8;
    19dc:	004a5023 	subu	t2,v0,t2
      b = (y * 256 + u * 454 + 128) >> 8;
    19e0:	000c6080 	sll	t4,t4,0x2
      y = y_buf[i];
      u = u_buf[i] - 128;
      v = v_buf[i] - 128;

      r = (y * 256 + v * 359 + 128) >> 8;
      g = (y * 256 - u * 88 - v * 182 + 128) >> 8;
    19e4:	000b70c0 	sll	t6,t3,0x3
    {
      y = y_buf[i];
      u = u_buf[i] - 128;
      v = v_buf[i] - 128;

      r = (y * 256 + v * 359 + 128) >> 8;
    19e8:	01231821 	addu	v1,t1,v1
      g = (y * 256 - u * 88 - v * 182 + 128) >> 8;
      b = (y * 256 + u * 454 + 128) >> 8;
    19ec:	01821023 	subu	v0,t4,v0
      y = y_buf[i];
      u = u_buf[i] - 128;
      v = v_buf[i] - 128;

      r = (y * 256 + v * 359 + 128) >> 8;
      g = (y * 256 - u * 88 - v * 182 + 128) >> 8;
    19f0:	000a50c0 	sll	t2,t2,0x3
    19f4:	016e5823 	subu	t3,t3,t6
    19f8:	01495021 	addu	t2,t2,t1
    19fc:	000b5840 	sll	t3,t3,0x1
      b = (y * 256 + u * 454 + 128) >> 8;
    1a00:	00021040 	sll	v0,v0,0x1
    1a04:	00031a03 	sra	v1,v1,0x8
      y = y_buf[i];
      u = u_buf[i] - 128;
      v = v_buf[i] - 128;

      r = (y * 256 + v * 359 + 128) >> 8;
      g = (y * 256 - u * 88 - v * 182 + 128) >> 8;
    1a08:	014b5021 	addu	t2,t2,t3
      b = (y * 256 + u * 454 + 128) >> 8;
    1a0c:	00494821 	addu	t1,v0,t1
    1a10:	286c0100 	slti	t4,v1,256
      y = y_buf[i];
      u = u_buf[i] - 128;
      v = v_buf[i] - 128;

      r = (y * 256 + v * 359 + 128) >> 8;
      g = (y * 256 - u * 88 - v * 182 + 128) >> 8;
    1a14:	000a5203 	sra	t2,t2,0x8
      b = (y * 256 + u * 454 + 128) >> 8;
    1a18:	15800002 	bnez	t4,1a24 <YuvToRgb+0xdc>
    1a1c:	00094a03 	sra	t1,t1,0x8
    1a20:	240300ff 	addiu	v1,zero,255
    1a24:	29420100 	slti	v0,t2,256
    1a28:	14400002 	bnez	v0,1a34 <YuvToRgb+0xec>
    1a2c:	29220100 	slti	v0,t1,256
    1a30:	240a00ff 	addiu	t2,zero,255
    1a34:	14400002 	bnez	v0,1a40 <YuvToRgb+0xf8>
    1a38:	00000000 	sll	zero,zero,0x0
    1a3c:	240900ff 	addiu	t1,zero,255
      if (b < 0)
	b = 0;
      else if (b > 255)
	b = 255;

      rgb_buf[p][0][i] = r;
    1a40:	04600010 	bltz	v1,1a84 <YuvToRgb+0x13c>
    1a44:	00000000 	sll	zero,zero,0x0
      rgb_buf[p][1][i] = g;
    1a48:	0540000c 	bltz	t2,1a7c <YuvToRgb+0x134>
    1a4c:	ac830000 	sw	v1,0(a0)
      rgb_buf[p][2][i] = b;
    1a50:	05200008 	bltz	t1,1a74 <YuvToRgb+0x12c>
    1a54:	ac8a0100 	sw	t2,256(a0)
    1a58:	25080004 	addiu	t0,t0,4
    1a5c:	ac890200 	sw	t1,512(a0)
{
  int r, g, b;
  int y, u, v;
  int i;

  for (i = 0; i < DCTSIZE2; i++)
    1a60:	150dffc3 	bne	t0,t5,1970 <YuvToRgb+0x28>
    1a64:	24840004 	addiu	a0,a0,4
      rgb_buf[p][0][i] = r;
      rgb_buf[p][1][i] = g;
      rgb_buf[p][2][i] = b;

    }
}
    1a68:	8fb00004 	lw	s0,4(sp)
    1a6c:	03e00008 	jr	ra
    1a70:	27bd0008 	addiu	sp,sp,8
      else if (b > 255)
	b = 255;

      rgb_buf[p][0][i] = r;
      rgb_buf[p][1][i] = g;
      rgb_buf[p][2][i] = b;
    1a74:	08000696 	j	1a58 <YuvToRgb+0x110>
    1a78:	00004821 	addu	t1,zero,zero
	b = 0;
      else if (b > 255)
	b = 255;

      rgb_buf[p][0][i] = r;
      rgb_buf[p][1][i] = g;
    1a7c:	08000694 	j	1a50 <YuvToRgb+0x108>
    1a80:	00005021 	addu	t2,zero,zero
      if (b < 0)
	b = 0;
      else if (b > 255)
	b = 255;

      rgb_buf[p][0][i] = r;
    1a84:	08000692 	j	1a48 <YuvToRgb+0x100>
    1a88:	00001821 	addu	v1,zero,zero

00001a8c <buf_getb>:
 * buf_getb() gets a bit from the read stream.
 */
int
buf_getb ()
{
  if (read_position < 0)
    1a8c:	8f83003c 	lw	v1,60(gp)
/*
 * buf_getb() gets a bit from the read stream.
 */
int
buf_getb ()
{
    1a90:	27bdffe8 	addiu	sp,sp,-24
    1a94:	afbf0014 	sw	ra,20(sp)
  if (read_position < 0)
    1a98:	0460000f 	bltz	v1,1ad8 <buf_getb+0x4c>
    1a9c:	afb00010 	sw	s0,16(sp)
    {
      current_read_byte = pgetc ();
      read_position = 7;
    }

  if (current_read_byte & bit_set_mask[read_position--])
    1aa0:	3c020000 	lui	v0,0x0
 * buf_getb() gets a bit from the read stream.
 */
int
buf_getb ()
{
  if (read_position < 0)
    1aa4:	2464ffff 	addiu	a0,v1,-1
    {
      current_read_byte = pgetc ();
      read_position = 7;
    }

  if (current_read_byte & bit_set_mask[read_position--])
    1aa8:	24420000 	addiu	v0,v0,0
    1aac:	00031880 	sll	v1,v1,0x2
    1ab0:	00621821 	addu	v1,v1,v0
    1ab4:	8c620000 	lw	v0,0(v1)
 * buf_getb() gets a bit from the read stream.
 */
int
buf_getb ()
{
  if (read_position < 0)
    1ab8:	8f900010 	lw	s0,16(gp)
  if (current_read_byte & bit_set_mask[read_position--])
    {
      return (1);
    }
  return (0);
}
    1abc:	8fbf0014 	lw	ra,20(sp)
    {
      current_read_byte = pgetc ();
      read_position = 7;
    }

  if (current_read_byte & bit_set_mask[read_position--])
    1ac0:	02028024 	and	s0,s0,v0
    {
      return (1);
    }
  return (0);
}
    1ac4:	0010102b 	sltu	v0,zero,s0
    1ac8:	8fb00010 	lw	s0,16(sp)
    {
      current_read_byte = pgetc ();
      read_position = 7;
    }

  if (current_read_byte & bit_set_mask[read_position--])
    1acc:	af84003c 	sw	a0,60(gp)
    {
      return (1);
    }
  return (0);
}
    1ad0:	03e00008 	jr	ra
    1ad4:	27bd0018 	addiu	sp,sp,24
static int
pgetc ()
{
  int temp;

  if ((temp = *CurHuffReadBuf++) == MARKER_MARKER)
    1ad8:	8f820000 	lw	v0,0(gp)
    1adc:	00000000 	sll	zero,zero,0x0
    1ae0:	24430001 	addiu	v1,v0,1
    1ae4:	90500000 	lbu	s0,0(v0)
    1ae8:	af830000 	sw	v1,0(gp)
    1aec:	240300ff 	addiu	v1,zero,255
    1af0:	12030010 	beq	s0,v1,1b34 <buf_getb+0xa8>
    1af4:	00000000 	sll	zero,zero,0x0
int
buf_getb ()
{
  if (read_position < 0)
    {
      current_read_byte = pgetc ();
    1af8:	24030007 	addiu	v1,zero,7
      read_position = 7;
    }

  if (current_read_byte & bit_set_mask[read_position--])
    1afc:	3c020000 	lui	v0,0x0
    1b00:	24420000 	addiu	v0,v0,0
    1b04:	00031880 	sll	v1,v1,0x2
    1b08:	00621821 	addu	v1,v1,v0
    1b0c:	8c620000 	lw	v0,0(v1)
    {
      return (1);
    }
  return (0);
}
    1b10:	8fbf0014 	lw	ra,20(sp)
int
buf_getb ()
{
  if (read_position < 0)
    {
      current_read_byte = pgetc ();
    1b14:	af900010 	sw	s0,16(gp)
    1b18:	24040006 	addiu	a0,zero,6
      read_position = 7;
    }

  if (current_read_byte & bit_set_mask[read_position--])
    1b1c:	02028024 	and	s0,s0,v0
    {
      return (1);
    }
  return (0);
}
    1b20:	0010102b 	sltu	v0,zero,s0
    1b24:	8fb00010 	lw	s0,16(sp)
    {
      current_read_byte = pgetc ();
      read_position = 7;
    }

  if (current_read_byte & bit_set_mask[read_position--])
    1b28:	af84003c 	sw	a0,60(gp)
    {
      return (1);
    }
  return (0);
}
    1b2c:	03e00008 	jr	ra
    1b30:	27bd0018 	addiu	sp,sp,24
{
  int temp;

  if ((temp = *CurHuffReadBuf++) == MARKER_MARKER)
    {				/* If MARKER then */
      if ((temp = *CurHuffReadBuf++))
    1b34:	90500001 	lbu	s0,1(v0)
    1b38:	24420002 	addiu	v0,v0,2
    1b3c:	16000003 	bnez	s0,1b4c <buf_getb+0xc0>
    1b40:	af820000 	sw	v0,0(gp)
    1b44:	080006be 	j	1af8 <buf_getb+0x6c>
    1b48:	241000ff 	addiu	s0,zero,255
	{			/* if next is not 0xff, then marker */
	  printf ("Unanticipated marker detected.\n");
    1b4c:	3c040000 	lui	a0,0x0
    1b50:	0c000000 	jal	0 <read_byte>
    1b54:	24840000 	addiu	a0,a0,0
int
buf_getb ()
{
  if (read_position < 0)
    {
      current_read_byte = pgetc ();
    1b58:	080006bf 	j	1afc <buf_getb+0x70>
    1b5c:	24030007 	addiu	v1,zero,7

00001b60 <buf_getv>:
 * megetv() gets n bits from the read stream and returns it.
 *
 */
int
buf_getv (int n)
{
    1b60:	27bdffd0 	addiu	sp,sp,-48
  int p, rv;

  n--;
  p = n - read_position;
    1b64:	8f83003c 	lw	v1,60(gp)
 * megetv() gets n bits from the read stream and returns it.
 *
 */
int
buf_getv (int n)
{
    1b68:	afb40024 	sw	s4,36(sp)
  int p, rv;

  n--;
    1b6c:	2494ffff 	addiu	s4,a0,-1
 * megetv() gets n bits from the read stream and returns it.
 *
 */
int
buf_getv (int n)
{
    1b70:	afb00014 	sw	s0,20(sp)
  int p, rv;

  n--;
  p = n - read_position;
    1b74:	02838023 	subu	s0,s4,v1
 * megetv() gets n bits from the read stream and returns it.
 *
 */
int
buf_getv (int n)
{
    1b78:	afbf002c 	sw	ra,44(sp)
    1b7c:	afb50028 	sw	s5,40(sp)
    1b80:	afb30020 	sw	s3,32(sp)
    1b84:	afb2001c 	sw	s2,28(sp)
  int p, rv;

  n--;
  p = n - read_position;
  while (p > 0)
    1b88:	1a000069 	blez	s0,1d30 <buf_getv+0x1d0>
    1b8c:	afb10018 	sw	s1,24(sp)
    {
      if (read_position > 23)
    1b90:	28620018 	slti	v0,v1,24
    1b94:	1040003b 	beqz	v0,1c84 <buf_getv+0x124>
    1b98:	3c150000 	lui	s5,0x0
	  rv = (current_read_byte << p);	/* Manipulate buffer */
	  current_read_byte = pgetc ();	/* Change read bytes */

	  rv |= (current_read_byte >> (8 - p));
	  read_position = 7 - p;
	  return (rv & lmask[n]);
    1b9c:	8f910010 	lw	s1,16(gp)
static int
pgetc ()
{
  int temp;

  if ((temp = *CurHuffReadBuf++) == MARKER_MARKER)
    1ba0:	241200ff 	addiu	s2,zero,255
    {				/* If MARKER then */
      if ((temp = *CurHuffReadBuf++))
	{			/* if next is not 0xff, then marker */
	  printf ("Unanticipated marker detected.\n");
    1ba4:	080006f4 	j	1bd0 <buf_getv+0x70>
    1ba8:	26b50000 	addiu	s5,s5,0
	  read_position = 7 - p;
	  return (rv & lmask[n]);
	  /* Can return pending residual val */
	}
      current_read_byte = (current_read_byte << 8) | pgetc ();
      read_position += 8;	/* else shift in new information */
    1bac:	24630008 	addiu	v1,v1,8
	  rv |= (current_read_byte >> (8 - p));
	  read_position = 7 - p;
	  return (rv & lmask[n]);
	  /* Can return pending residual val */
	}
      current_read_byte = (current_read_byte << 8) | pgetc ();
    1bb0:	02718825 	or	s1,s3,s1
      read_position += 8;	/* else shift in new information */
      p -= 8;
    1bb4:	2610fff8 	addiu	s0,s0,-8

  n--;
  p = n - read_position;
  while (p > 0)
    {
      if (read_position > 23)
    1bb8:	28620018 	slti	v0,v1,24
	  rv |= (current_read_byte >> (8 - p));
	  read_position = 7 - p;
	  return (rv & lmask[n]);
	  /* Can return pending residual val */
	}
      current_read_byte = (current_read_byte << 8) | pgetc ();
    1bbc:	af910010 	sw	s1,16(gp)
{
  int p, rv;

  n--;
  p = n - read_position;
  while (p > 0)
    1bc0:	1a000016 	blez	s0,1c1c <buf_getv+0xbc>
    1bc4:	af83003c 	sw	v1,60(gp)
    {
      if (read_position > 23)
    1bc8:	1040002f 	beqz	v0,1c88 <buf_getv+0x128>
    1bcc:	00000000 	sll	zero,zero,0x0
static int
pgetc ()
{
  int temp;

  if ((temp = *CurHuffReadBuf++) == MARKER_MARKER)
    1bd0:	8f840000 	lw	a0,0(gp)
	  rv |= (current_read_byte >> (8 - p));
	  read_position = 7 - p;
	  return (rv & lmask[n]);
	  /* Can return pending residual val */
	}
      current_read_byte = (current_read_byte << 8) | pgetc ();
    1bd4:	00118a00 	sll	s1,s1,0x8
static int
pgetc ()
{
  int temp;

  if ((temp = *CurHuffReadBuf++) == MARKER_MARKER)
    1bd8:	90930000 	lbu	s3,0(a0)
    1bdc:	24820001 	addiu	v0,a0,1
    {				/* If MARKER then */
      if ((temp = *CurHuffReadBuf++))
    1be0:	24850002 	addiu	a1,a0,2
static int
pgetc ()
{
  int temp;

  if ((temp = *CurHuffReadBuf++) == MARKER_MARKER)
    1be4:	1672fff1 	bne	s3,s2,1bac <buf_getv+0x4c>
    1be8:	af820000 	sw	v0,0(gp)
    {				/* If MARKER then */
      if ((temp = *CurHuffReadBuf++))
    1bec:	90930001 	lbu	s3,1(a0)
    1bf0:	00000000 	sll	zero,zero,0x0
    1bf4:	1660001e 	bnez	s3,1c70 <buf_getv+0x110>
    1bf8:	af850000 	sw	a1,0(gp)
    1bfc:	241300ff 	addiu	s3,zero,255
	  read_position = 7 - p;
	  return (rv & lmask[n]);
	  /* Can return pending residual val */
	}
      current_read_byte = (current_read_byte << 8) | pgetc ();
      read_position += 8;	/* else shift in new information */
    1c00:	24630008 	addiu	v1,v1,8
	  rv |= (current_read_byte >> (8 - p));
	  read_position = 7 - p;
	  return (rv & lmask[n]);
	  /* Can return pending residual val */
	}
      current_read_byte = (current_read_byte << 8) | pgetc ();
    1c04:	02718825 	or	s1,s3,s1
      read_position += 8;	/* else shift in new information */
      p -= 8;
    1c08:	2610fff8 	addiu	s0,s0,-8

  n--;
  p = n - read_position;
  while (p > 0)
    {
      if (read_position > 23)
    1c0c:	28620018 	slti	v0,v1,24
	  rv |= (current_read_byte >> (8 - p));
	  read_position = 7 - p;
	  return (rv & lmask[n]);
	  /* Can return pending residual val */
	}
      current_read_byte = (current_read_byte << 8) | pgetc ();
    1c10:	af910010 	sw	s1,16(gp)
{
  int p, rv;

  n--;
  p = n - read_position;
  while (p > 0)
    1c14:	1e00ffec 	bgtz	s0,1bc8 <buf_getv+0x68>
    1c18:	af83003c 	sw	v1,60(gp)
      current_read_byte = (current_read_byte << 8) | pgetc ();
      read_position += 8;	/* else shift in new information */
      p -= 8;
    }

  if (!p)
    1c1c:	12000037 	beqz	s0,1cfc <buf_getv+0x19c>
    1c20:	3c020000 	lui	v0,0x0
    }

  p = -p;
  /* Else reverse position and shift */
  read_position = p - 1;
  return ((current_read_byte >> p) & lmask[n]);
    1c24:	3c020000 	lui	v0,0x0
    1c28:	24420000 	addiu	v0,v0,0
    1c2c:	0014a080 	sll	s4,s4,0x2
    1c30:	0282a021 	addu	s4,s4,v0
      read_position = -1;
      /* Can return current byte */
      return (current_read_byte & lmask[n]);
    }

  p = -p;
    1c34:	00108023 	negu	s0,s0
  /* Else reverse position and shift */
  read_position = p - 1;
  return ((current_read_byte >> p) & lmask[n]);
    1c38:	8e830000 	lw	v1,0(s4)
      return (current_read_byte & lmask[n]);
    }

  p = -p;
  /* Else reverse position and shift */
  read_position = p - 1;
    1c3c:	2602ffff 	addiu	v0,s0,-1
  return ((current_read_byte >> p) & lmask[n]);
    1c40:	02118806 	srlv	s1,s1,s0
      return (current_read_byte & lmask[n]);
    }

  p = -p;
  /* Else reverse position and shift */
  read_position = p - 1;
    1c44:	af82003c 	sw	v0,60(gp)
  return ((current_read_byte >> p) & lmask[n]);
    1c48:	02231024 	and	v0,s1,v1
}
    1c4c:	8fbf002c 	lw	ra,44(sp)
    1c50:	8fb50028 	lw	s5,40(sp)
    1c54:	8fb40024 	lw	s4,36(sp)
    1c58:	8fb30020 	lw	s3,32(sp)
    1c5c:	8fb2001c 	lw	s2,28(sp)
    1c60:	8fb10018 	lw	s1,24(sp)
    1c64:	8fb00014 	lw	s0,20(sp)
    1c68:	03e00008 	jr	ra
    1c6c:	27bd0030 	addiu	sp,sp,48

  if ((temp = *CurHuffReadBuf++) == MARKER_MARKER)
    {				/* If MARKER then */
      if ((temp = *CurHuffReadBuf++))
	{			/* if next is not 0xff, then marker */
	  printf ("Unanticipated marker detected.\n");
    1c70:	0c000000 	jal	0 <read_byte>
    1c74:	02a02021 	addu	a0,s5,zero
    1c78:	8f83003c 	lw	v1,60(gp)
	  read_position = 7 - p;
	  return (rv & lmask[n]);
	  /* Can return pending residual val */
	}
      current_read_byte = (current_read_byte << 8) | pgetc ();
      read_position += 8;	/* else shift in new information */
    1c7c:	080006ec 	j	1bb0 <buf_getv+0x50>
    1c80:	24630008 	addiu	v1,v1,8

  n--;
  p = n - read_position;
  while (p > 0)
    {
      if (read_position > 23)
    1c84:	8f910010 	lw	s1,16(gp)
static int
pgetc ()
{
  int temp;

  if ((temp = *CurHuffReadBuf++) == MARKER_MARKER)
    1c88:	8f820000 	lw	v0,0(gp)
    1c8c:	00000000 	sll	zero,zero,0x0
    1c90:	24430001 	addiu	v1,v0,1
    1c94:	90520000 	lbu	s2,0(v0)
    1c98:	af830000 	sw	v1,0(gp)
    1c9c:	240300ff 	addiu	v1,zero,255
    1ca0:	12430010 	beq	s2,v1,1ce4 <buf_getv+0x184>
    1ca4:	02118804 	sllv	s1,s1,s0
	  rv = (current_read_byte << p);	/* Manipulate buffer */
	  current_read_byte = pgetc ();	/* Change read bytes */

	  rv |= (current_read_byte >> (8 - p));
	  read_position = 7 - p;
	  return (rv & lmask[n]);
    1ca8:	3c030000 	lui	v1,0x0
    1cac:	24630000 	addiu	v1,v1,0
    1cb0:	0014a080 	sll	s4,s4,0x2
      if (read_position > 23)
	{			/* If byte buffer contains almost entire word */
	  rv = (current_read_byte << p);	/* Manipulate buffer */
	  current_read_byte = pgetc ();	/* Change read bytes */

	  rv |= (current_read_byte >> (8 - p));
    1cb4:	24020008 	addiu	v0,zero,8
    1cb8:	00501023 	subu	v0,v0,s0
	  read_position = 7 - p;
	  return (rv & lmask[n]);
    1cbc:	0283a021 	addu	s4,s4,v1
      if (read_position > 23)
	{			/* If byte buffer contains almost entire word */
	  rv = (current_read_byte << p);	/* Manipulate buffer */
	  current_read_byte = pgetc ();	/* Change read bytes */

	  rv |= (current_read_byte >> (8 - p));
    1cc0:	00521006 	srlv	v0,s2,v0
	  read_position = 7 - p;
	  return (rv & lmask[n]);
    1cc4:	8e830000 	lw	v1,0(s4)
	{			/* If byte buffer contains almost entire word */
	  rv = (current_read_byte << p);	/* Manipulate buffer */
	  current_read_byte = pgetc ();	/* Change read bytes */

	  rv |= (current_read_byte >> (8 - p));
	  read_position = 7 - p;
    1cc8:	24040007 	addiu	a0,zero,7
    1ccc:	00908023 	subu	s0,a0,s0
      if (read_position > 23)
	{			/* If byte buffer contains almost entire word */
	  rv = (current_read_byte << p);	/* Manipulate buffer */
	  current_read_byte = pgetc ();	/* Change read bytes */

	  rv |= (current_read_byte >> (8 - p));
    1cd0:	00518825 	or	s1,v0,s1
  while (p > 0)
    {
      if (read_position > 23)
	{			/* If byte buffer contains almost entire word */
	  rv = (current_read_byte << p);	/* Manipulate buffer */
	  current_read_byte = pgetc ();	/* Change read bytes */
    1cd4:	af920010 	sw	s2,16(gp)

	  rv |= (current_read_byte >> (8 - p));
	  read_position = 7 - p;
    1cd8:	af90003c 	sw	s0,60(gp)
	  return (rv & lmask[n]);
    1cdc:	08000713 	j	1c4c <buf_getv+0xec>
    1ce0:	02231024 	and	v0,s1,v1
{
  int temp;

  if ((temp = *CurHuffReadBuf++) == MARKER_MARKER)
    {				/* If MARKER then */
      if ((temp = *CurHuffReadBuf++))
    1ce4:	90520001 	lbu	s2,1(v0)
    1ce8:	24420002 	addiu	v0,v0,2
    1cec:	1640000b 	bnez	s2,1d1c <buf_getv+0x1bc>
    1cf0:	af820000 	sw	v0,0(gp)
    1cf4:	0800072a 	j	1ca8 <buf_getv+0x148>
    1cf8:	241200ff 	addiu	s2,zero,255

  if (!p)
    {				/* If position is zero */
      read_position = -1;
      /* Can return current byte */
      return (current_read_byte & lmask[n]);
    1cfc:	24420000 	addiu	v0,v0,0
    1d00:	0014a080 	sll	s4,s4,0x2
    1d04:	0282a021 	addu	s4,s4,v0
    1d08:	8e820000 	lw	v0,0(s4)
      p -= 8;
    }

  if (!p)
    {				/* If position is zero */
      read_position = -1;
    1d0c:	2403ffff 	addiu	v1,zero,-1
    1d10:	af83003c 	sw	v1,60(gp)
      /* Can return current byte */
      return (current_read_byte & lmask[n]);
    1d14:	08000713 	j	1c4c <buf_getv+0xec>
    1d18:	02221024 	and	v0,s1,v0

  if ((temp = *CurHuffReadBuf++) == MARKER_MARKER)
    {				/* If MARKER then */
      if ((temp = *CurHuffReadBuf++))
	{			/* if next is not 0xff, then marker */
	  printf ("Unanticipated marker detected.\n");
    1d1c:	3c040000 	lui	a0,0x0
    1d20:	0c000000 	jal	0 <read_byte>
    1d24:	24840000 	addiu	a0,a0,0
	  rv = (current_read_byte << p);	/* Manipulate buffer */
	  current_read_byte = pgetc ();	/* Change read bytes */

	  rv |= (current_read_byte >> (8 - p));
	  read_position = 7 - p;
	  return (rv & lmask[n]);
    1d28:	0800072b 	j	1cac <buf_getv+0x14c>
    1d2c:	3c030000 	lui	v1,0x0
{
  int p, rv;

  n--;
  p = n - read_position;
  while (p > 0)
    1d30:	8f910010 	lw	s1,16(gp)
      current_read_byte = (current_read_byte << 8) | pgetc ();
      read_position += 8;	/* else shift in new information */
      p -= 8;
    }

  if (!p)
    1d34:	1600ffbb 	bnez	s0,1c24 <buf_getv+0xc4>
    1d38:	3c020000 	lui	v0,0x0
    {				/* If position is zero */
      read_position = -1;
      /* Can return current byte */
      return (current_read_byte & lmask[n]);
    1d3c:	08000740 	j	1d00 <buf_getv+0x1a0>
    1d40:	24420000 	addiu	v0,v0,0

00001d44 <huff_make_dhuff_tb>:
 */
int
huff_make_dhuff_tb (int *p_xhtbl_bits, int p_dhtbl_ml,
		    int *p_dhtbl_maxcode, int *p_dhtbl_mincode,
		    int *p_dhtbl_valptr)
{
    1d44:	27bdf7f8 	addiu	sp,sp,-2056
    1d48:	8fac0818 	lw	t4,2072(sp)
      else
	{			/* We use -1 to indicate skipping. */
	  p_dhtbl_valptr[l] = p;
	  p_dhtbl_mincode[l] = huffcode[p];
	  p += p_xhtbl_bits[l] - 1;
	  p_dhtbl_maxcode[l] = huffcode[p];
    1d4c:	00805021 	addu	t2,a0,zero
  int lastp;

  /*
   * Get size
   */
  for (p = 0, i = 1; i < 17; i++)
    1d50:	24080001 	addiu	t0,zero,1
    1d54:	00005821 	addu	t3,zero,zero
    1d58:	240d0011 	addiu	t5,zero,17
    {
      for (j = 1; j <= p_xhtbl_bits[i]; j++)
    1d5c:	8d490004 	lw	t1,4(t2)
    1d60:	00000000 	sll	zero,zero,0x0
    1d64:	1920000a 	blez	t1,1d90 <huff_make_dhuff_tb+0x4c>
    1d68:	00000000 	sll	zero,zero,0x0

/*
 * Create Table for decoding
 */
int
huff_make_dhuff_tb (int *p_xhtbl_bits, int p_dhtbl_ml,
    1d6c:	000b1880 	sll	v1,t3,0x2
    1d70:	03a31821 	addu	v1,sp,v1
    1d74:	24020001 	addiu	v0,zero,1
  /*
   * Get size
   */
  for (p = 0, i = 1; i < 17; i++)
    {
      for (j = 1; j <= p_xhtbl_bits[i]; j++)
    1d78:	24420001 	addiu	v0,v0,1
    1d7c:	0122282a 	slt	a1,t1,v0
	{
	  huffsize[p++] = i;
    1d80:	ac680000 	sw	t0,0(v1)
  /*
   * Get size
   */
  for (p = 0, i = 1; i < 17; i++)
    {
      for (j = 1; j <= p_xhtbl_bits[i]; j++)
    1d84:	10a0fffc 	beqz	a1,1d78 <huff_make_dhuff_tb+0x34>
    1d88:	24630004 	addiu	v1,v1,4
    1d8c:	01695821 	addu	t3,t3,t1
  int lastp;

  /*
   * Get size
   */
  for (p = 0, i = 1; i < 17; i++)
    1d90:	25080001 	addiu	t0,t0,1
    1d94:	150dfff1 	bne	t0,t5,1d5c <huff_make_dhuff_tb+0x18>
    1d98:	254a0004 	addiu	t2,t2,4
	{
	  huffsize[p++] = i;
	}
    }

  huffsize[p] = 0;
    1d9c:	000b5880 	sll	t3,t3,0x2
    1da0:	03ab5821 	addu	t3,sp,t3
    1da4:	ad600000 	sw	zero,0(t3)
  lastp = p;

  p = 0;
  code = 0;
  size = huffsize[0];
    1da8:	27a90004 	addiu	t1,sp,4
    1dac:	8fa80000 	lw	t0,0(sp)
    {
      do
	{
	  huffcode[p++] = code++;
	}
      while ((huffsize[p] == size) && (p < 257));
    1db0:	8d250000 	lw	a1,0(t1)

  huffsize[p] = 0;
  lastp = p;

  p = 0;
  code = 0;
    1db4:	00001821 	addu	v1,zero,zero
  size = huffsize[0];
    1db8:	27aa0404 	addiu	t2,sp,1028
    }

  huffsize[p] = 0;
  lastp = p;

  p = 0;
    1dbc:	00005821 	addu	t3,zero,zero
  size = huffsize[0];
  while (1)
    {
      do
	{
	  huffcode[p++] = code++;
    1dc0:	ad430000 	sw	v1,0(t2)
    1dc4:	256b0001 	addiu	t3,t3,1
	}
      while ((huffsize[p] == size) && (p < 257));
    1dc8:	10a80011 	beq	a1,t0,1e10 <huff_make_dhuff_tb+0xcc>
    1dcc:	24630001 	addiu	v1,v1,1
      /* Overflow Detection */
      if (!huffsize[p])
    1dd0:	10a00015 	beqz	a1,1e28 <huff_make_dhuff_tb+0xe4>
    1dd4:	01001021 	addu	v0,t0,zero
	}
      do
	{
	  /* Shift next code to expand prefix. */
	  code <<= 1;
	  size++;
    1dd8:	24420001 	addiu	v0,v0,1
	}
      while (huffsize[p] != size);
    1ddc:	14a2fffe 	bne	a1,v0,1dd8 <huff_make_dhuff_tb+0x94>
    1de0:	00031840 	sll	v1,v1,0x1

/*
 * Create Table for decoding
 */
int
huff_make_dhuff_tb (int *p_xhtbl_bits, int p_dhtbl_ml,
    1de4:	00081027 	nor	v0,zero,t0
    1de8:	00452821 	addu	a1,v0,a1
    1dec:	25080001 	addiu	t0,t0,1
    1df0:	01054021 	addu	t0,t0,a1
  huffsize[p] = 0;
  lastp = p;

  p = 0;
  code = 0;
  size = huffsize[0];
    1df4:	254a0004 	addiu	t2,t2,4
    1df8:	25290004 	addiu	t1,t1,4
    {
      do
	{
	  huffcode[p++] = code++;
	}
      while ((huffsize[p] == size) && (p < 257));
    1dfc:	8d250000 	lw	a1,0(t1)
  size = huffsize[0];
  while (1)
    {
      do
	{
	  huffcode[p++] = code++;
    1e00:	ad430000 	sw	v1,0(t2)
    1e04:	256b0001 	addiu	t3,t3,1
	}
      while ((huffsize[p] == size) && (p < 257));
    1e08:	14a8fff1 	bne	a1,t0,1dd0 <huff_make_dhuff_tb+0x8c>
    1e0c:	24630001 	addiu	v1,v1,1
    1e10:	29620101 	slti	v0,t3,257
    1e14:	1040ffee 	beqz	v0,1dd0 <huff_make_dhuff_tb+0x8c>
    1e18:	00000000 	sll	zero,zero,0x0
  huffsize[p] = 0;
  lastp = p;

  p = 0;
  code = 0;
  size = huffsize[0];
    1e1c:	254a0004 	addiu	t2,t2,4
    1e20:	0800077f 	j	1dfc <huff_make_dhuff_tb+0xb8>
    1e24:	25290004 	addiu	t1,t1,4
      while (huffsize[p] != size);
    }

  for (p_dhtbl_ml = 1, p = 0, l = 1; l <= 16; l++)
    {
      if (p_xhtbl_bits[l] == 0)
    1e28:	8c820004 	lw	v0,4(a0)
    1e2c:	00000000 	sll	zero,zero,0x0
    1e30:	10400115 	beqz	v0,2288 <huff_make_dhuff_tb+0x544>
    1e34:	2402ffff 	addiu	v0,zero,-1
	  p_dhtbl_maxcode[l] = -1;	/* Watch out JPEG is wrong here */
	}
      else
	{			/* We use -1 to indicate skipping. */
	  p_dhtbl_valptr[l] = p;
	  p_dhtbl_mincode[l] = huffcode[p];
    1e38:	8fa20404 	lw	v0,1028(sp)
	{
	  p_dhtbl_maxcode[l] = -1;	/* Watch out JPEG is wrong here */
	}
      else
	{			/* We use -1 to indicate skipping. */
	  p_dhtbl_valptr[l] = p;
    1e3c:	ad800004 	sw	zero,4(t4)
	  p_dhtbl_mincode[l] = huffcode[p];
    1e40:	ace20004 	sw	v0,4(a3)
	  p += p_xhtbl_bits[l] - 1;
    1e44:	8c830004 	lw	v1,4(a0)
    1e48:	00000000 	sll	zero,zero,0x0
    1e4c:	2462ffff 	addiu	v0,v1,-1
	  p_dhtbl_maxcode[l] = huffcode[p];
    1e50:	00021080 	sll	v0,v0,0x2
    1e54:	03a21021 	addu	v0,sp,v0
    1e58:	8c420404 	lw	v0,1028(v0)
    1e5c:	00000000 	sll	zero,zero,0x0
    1e60:	acc20004 	sw	v0,4(a2)
      while (huffsize[p] != size);
    }

  for (p_dhtbl_ml = 1, p = 0, l = 1; l <= 16; l++)
    {
      if (p_xhtbl_bits[l] == 0)
    1e64:	8c820008 	lw	v0,8(a0)
    1e68:	00000000 	sll	zero,zero,0x0
    1e6c:	10400131 	beqz	v0,2334 <huff_make_dhuff_tb+0x5f0>
    1e70:	2402ffff 	addiu	v0,zero,-1
	  p_dhtbl_maxcode[l] = -1;	/* Watch out JPEG is wrong here */
	}
      else
	{			/* We use -1 to indicate skipping. */
	  p_dhtbl_valptr[l] = p;
	  p_dhtbl_mincode[l] = huffcode[p];
    1e74:	00031080 	sll	v0,v1,0x2
    1e78:	03a21021 	addu	v0,sp,v0
    1e7c:	8c420404 	lw	v0,1028(v0)
	{
	  p_dhtbl_maxcode[l] = -1;	/* Watch out JPEG is wrong here */
	}
      else
	{			/* We use -1 to indicate skipping. */
	  p_dhtbl_valptr[l] = p;
    1e80:	ad830008 	sw	v1,8(t4)
	  p_dhtbl_mincode[l] = huffcode[p];
    1e84:	ace20008 	sw	v0,8(a3)
	  p += p_xhtbl_bits[l] - 1;
    1e88:	8c850008 	lw	a1,8(a0)
	  size++;
	}
      while (huffsize[p] != size);
    }

  for (p_dhtbl_ml = 1, p = 0, l = 1; l <= 16; l++)
    1e8c:	24020002 	addiu	v0,zero,2
	}
      else
	{			/* We use -1 to indicate skipping. */
	  p_dhtbl_valptr[l] = p;
	  p_dhtbl_mincode[l] = huffcode[p];
	  p += p_xhtbl_bits[l] - 1;
    1e90:	24a5ffff 	addiu	a1,a1,-1
    1e94:	00a31821 	addu	v1,a1,v1
	  p_dhtbl_maxcode[l] = huffcode[p];
    1e98:	00032880 	sll	a1,v1,0x2
    1e9c:	03a52821 	addu	a1,sp,a1
    1ea0:	8ca50404 	lw	a1,1028(a1)
	  p_dhtbl_ml = l;
	  p++;
    1ea4:	24630001 	addiu	v1,v1,1
      else
	{			/* We use -1 to indicate skipping. */
	  p_dhtbl_valptr[l] = p;
	  p_dhtbl_mincode[l] = huffcode[p];
	  p += p_xhtbl_bits[l] - 1;
	  p_dhtbl_maxcode[l] = huffcode[p];
    1ea8:	acc50008 	sw	a1,8(a2)
      while (huffsize[p] != size);
    }

  for (p_dhtbl_ml = 1, p = 0, l = 1; l <= 16; l++)
    {
      if (p_xhtbl_bits[l] == 0)
    1eac:	8c85000c 	lw	a1,12(a0)
    1eb0:	00000000 	sll	zero,zero,0x0
    1eb4:	10a0011d 	beqz	a1,232c <huff_make_dhuff_tb+0x5e8>
    1eb8:	2405ffff 	addiu	a1,zero,-1
	  p_dhtbl_maxcode[l] = -1;	/* Watch out JPEG is wrong here */
	}
      else
	{			/* We use -1 to indicate skipping. */
	  p_dhtbl_valptr[l] = p;
	  p_dhtbl_mincode[l] = huffcode[p];
    1ebc:	00031080 	sll	v0,v1,0x2
    1ec0:	03a21021 	addu	v0,sp,v0
    1ec4:	8c420404 	lw	v0,1028(v0)
	{
	  p_dhtbl_maxcode[l] = -1;	/* Watch out JPEG is wrong here */
	}
      else
	{			/* We use -1 to indicate skipping. */
	  p_dhtbl_valptr[l] = p;
    1ec8:	ad83000c 	sw	v1,12(t4)
	  p_dhtbl_mincode[l] = huffcode[p];
    1ecc:	ace2000c 	sw	v0,12(a3)
	  p += p_xhtbl_bits[l] - 1;
    1ed0:	8c85000c 	lw	a1,12(a0)
	  size++;
	}
      while (huffsize[p] != size);
    }

  for (p_dhtbl_ml = 1, p = 0, l = 1; l <= 16; l++)
    1ed4:	24020003 	addiu	v0,zero,3
	}
      else
	{			/* We use -1 to indicate skipping. */
	  p_dhtbl_valptr[l] = p;
	  p_dhtbl_mincode[l] = huffcode[p];
	  p += p_xhtbl_bits[l] - 1;
    1ed8:	24a5ffff 	addiu	a1,a1,-1
    1edc:	00a31821 	addu	v1,a1,v1
	  p_dhtbl_maxcode[l] = huffcode[p];
    1ee0:	00032880 	sll	a1,v1,0x2
    1ee4:	03a52821 	addu	a1,sp,a1
    1ee8:	8ca50404 	lw	a1,1028(a1)
	  p_dhtbl_ml = l;
	  p++;
    1eec:	24630001 	addiu	v1,v1,1
      else
	{			/* We use -1 to indicate skipping. */
	  p_dhtbl_valptr[l] = p;
	  p_dhtbl_mincode[l] = huffcode[p];
	  p += p_xhtbl_bits[l] - 1;
	  p_dhtbl_maxcode[l] = huffcode[p];
    1ef0:	acc5000c 	sw	a1,12(a2)
      while (huffsize[p] != size);
    }

  for (p_dhtbl_ml = 1, p = 0, l = 1; l <= 16; l++)
    {
      if (p_xhtbl_bits[l] == 0)
    1ef4:	8c850010 	lw	a1,16(a0)
    1ef8:	00000000 	sll	zero,zero,0x0
    1efc:	10a00109 	beqz	a1,2324 <huff_make_dhuff_tb+0x5e0>
    1f00:	2405ffff 	addiu	a1,zero,-1
	  p_dhtbl_maxcode[l] = -1;	/* Watch out JPEG is wrong here */
	}
      else
	{			/* We use -1 to indicate skipping. */
	  p_dhtbl_valptr[l] = p;
	  p_dhtbl_mincode[l] = huffcode[p];
    1f04:	00031080 	sll	v0,v1,0x2
    1f08:	03a21021 	addu	v0,sp,v0
    1f0c:	8c420404 	lw	v0,1028(v0)
	{
	  p_dhtbl_maxcode[l] = -1;	/* Watch out JPEG is wrong here */
	}
      else
	{			/* We use -1 to indicate skipping. */
	  p_dhtbl_valptr[l] = p;
    1f10:	ad830010 	sw	v1,16(t4)
	  p_dhtbl_mincode[l] = huffcode[p];
    1f14:	ace20010 	sw	v0,16(a3)
	  p += p_xhtbl_bits[l] - 1;
    1f18:	8c850010 	lw	a1,16(a0)
	  size++;
	}
      while (huffsize[p] != size);
    }

  for (p_dhtbl_ml = 1, p = 0, l = 1; l <= 16; l++)
    1f1c:	24020004 	addiu	v0,zero,4
	}
      else
	{			/* We use -1 to indicate skipping. */
	  p_dhtbl_valptr[l] = p;
	  p_dhtbl_mincode[l] = huffcode[p];
	  p += p_xhtbl_bits[l] - 1;
    1f20:	24a5ffff 	addiu	a1,a1,-1
    1f24:	00a31821 	addu	v1,a1,v1
	  p_dhtbl_maxcode[l] = huffcode[p];
    1f28:	00032880 	sll	a1,v1,0x2
    1f2c:	03a52821 	addu	a1,sp,a1
    1f30:	8ca50404 	lw	a1,1028(a1)
	  p_dhtbl_ml = l;
	  p++;
    1f34:	24630001 	addiu	v1,v1,1
      else
	{			/* We use -1 to indicate skipping. */
	  p_dhtbl_valptr[l] = p;
	  p_dhtbl_mincode[l] = huffcode[p];
	  p += p_xhtbl_bits[l] - 1;
	  p_dhtbl_maxcode[l] = huffcode[p];
    1f38:	acc50010 	sw	a1,16(a2)
      while (huffsize[p] != size);
    }

  for (p_dhtbl_ml = 1, p = 0, l = 1; l <= 16; l++)
    {
      if (p_xhtbl_bits[l] == 0)
    1f3c:	8c850014 	lw	a1,20(a0)
    1f40:	00000000 	sll	zero,zero,0x0
    1f44:	10a000f5 	beqz	a1,231c <huff_make_dhuff_tb+0x5d8>
    1f48:	2405ffff 	addiu	a1,zero,-1
	  p_dhtbl_maxcode[l] = -1;	/* Watch out JPEG is wrong here */
	}
      else
	{			/* We use -1 to indicate skipping. */
	  p_dhtbl_valptr[l] = p;
	  p_dhtbl_mincode[l] = huffcode[p];
    1f4c:	00031080 	sll	v0,v1,0x2
    1f50:	03a21021 	addu	v0,sp,v0
    1f54:	8c420404 	lw	v0,1028(v0)
	{
	  p_dhtbl_maxcode[l] = -1;	/* Watch out JPEG is wrong here */
	}
      else
	{			/* We use -1 to indicate skipping. */
	  p_dhtbl_valptr[l] = p;
    1f58:	ad830014 	sw	v1,20(t4)
	  p_dhtbl_mincode[l] = huffcode[p];
    1f5c:	ace20014 	sw	v0,20(a3)
	  p += p_xhtbl_bits[l] - 1;
    1f60:	8c850014 	lw	a1,20(a0)
	  size++;
	}
      while (huffsize[p] != size);
    }

  for (p_dhtbl_ml = 1, p = 0, l = 1; l <= 16; l++)
    1f64:	24020005 	addiu	v0,zero,5
	}
      else
	{			/* We use -1 to indicate skipping. */
	  p_dhtbl_valptr[l] = p;
	  p_dhtbl_mincode[l] = huffcode[p];
	  p += p_xhtbl_bits[l] - 1;
    1f68:	24a5ffff 	addiu	a1,a1,-1
    1f6c:	00a31821 	addu	v1,a1,v1
	  p_dhtbl_maxcode[l] = huffcode[p];
    1f70:	00032880 	sll	a1,v1,0x2
    1f74:	03a52821 	addu	a1,sp,a1
    1f78:	8ca50404 	lw	a1,1028(a1)
	  p_dhtbl_ml = l;
	  p++;
    1f7c:	24630001 	addiu	v1,v1,1
      else
	{			/* We use -1 to indicate skipping. */
	  p_dhtbl_valptr[l] = p;
	  p_dhtbl_mincode[l] = huffcode[p];
	  p += p_xhtbl_bits[l] - 1;
	  p_dhtbl_maxcode[l] = huffcode[p];
    1f80:	acc50014 	sw	a1,20(a2)
      while (huffsize[p] != size);
    }

  for (p_dhtbl_ml = 1, p = 0, l = 1; l <= 16; l++)
    {
      if (p_xhtbl_bits[l] == 0)
    1f84:	8c850018 	lw	a1,24(a0)
    1f88:	00000000 	sll	zero,zero,0x0
    1f8c:	10a000e1 	beqz	a1,2314 <huff_make_dhuff_tb+0x5d0>
    1f90:	2405ffff 	addiu	a1,zero,-1
	  p_dhtbl_maxcode[l] = -1;	/* Watch out JPEG is wrong here */
	}
      else
	{			/* We use -1 to indicate skipping. */
	  p_dhtbl_valptr[l] = p;
	  p_dhtbl_mincode[l] = huffcode[p];
    1f94:	00031080 	sll	v0,v1,0x2
    1f98:	03a21021 	addu	v0,sp,v0
    1f9c:	8c420404 	lw	v0,1028(v0)
	{
	  p_dhtbl_maxcode[l] = -1;	/* Watch out JPEG is wrong here */
	}
      else
	{			/* We use -1 to indicate skipping. */
	  p_dhtbl_valptr[l] = p;
    1fa0:	ad830018 	sw	v1,24(t4)
	  p_dhtbl_mincode[l] = huffcode[p];
    1fa4:	ace20018 	sw	v0,24(a3)
	  p += p_xhtbl_bits[l] - 1;
    1fa8:	8c850018 	lw	a1,24(a0)
	  size++;
	}
      while (huffsize[p] != size);
    }

  for (p_dhtbl_ml = 1, p = 0, l = 1; l <= 16; l++)
    1fac:	24020006 	addiu	v0,zero,6
	}
      else
	{			/* We use -1 to indicate skipping. */
	  p_dhtbl_valptr[l] = p;
	  p_dhtbl_mincode[l] = huffcode[p];
	  p += p_xhtbl_bits[l] - 1;
    1fb0:	24a5ffff 	addiu	a1,a1,-1
    1fb4:	00a31821 	addu	v1,a1,v1
	  p_dhtbl_maxcode[l] = huffcode[p];
    1fb8:	00032880 	sll	a1,v1,0x2
    1fbc:	03a52821 	addu	a1,sp,a1
    1fc0:	8ca50404 	lw	a1,1028(a1)
	  p_dhtbl_ml = l;
	  p++;
    1fc4:	24630001 	addiu	v1,v1,1
      else
	{			/* We use -1 to indicate skipping. */
	  p_dhtbl_valptr[l] = p;
	  p_dhtbl_mincode[l] = huffcode[p];
	  p += p_xhtbl_bits[l] - 1;
	  p_dhtbl_maxcode[l] = huffcode[p];
    1fc8:	acc50018 	sw	a1,24(a2)
      while (huffsize[p] != size);
    }

  for (p_dhtbl_ml = 1, p = 0, l = 1; l <= 16; l++)
    {
      if (p_xhtbl_bits[l] == 0)
    1fcc:	8c85001c 	lw	a1,28(a0)
    1fd0:	00000000 	sll	zero,zero,0x0
    1fd4:	10a000cd 	beqz	a1,230c <huff_make_dhuff_tb+0x5c8>
    1fd8:	2405ffff 	addiu	a1,zero,-1
	  p_dhtbl_maxcode[l] = -1;	/* Watch out JPEG is wrong here */
	}
      else
	{			/* We use -1 to indicate skipping. */
	  p_dhtbl_valptr[l] = p;
	  p_dhtbl_mincode[l] = huffcode[p];
    1fdc:	00031080 	sll	v0,v1,0x2
    1fe0:	03a21021 	addu	v0,sp,v0
    1fe4:	8c420404 	lw	v0,1028(v0)
	{
	  p_dhtbl_maxcode[l] = -1;	/* Watch out JPEG is wrong here */
	}
      else
	{			/* We use -1 to indicate skipping. */
	  p_dhtbl_valptr[l] = p;
    1fe8:	ad83001c 	sw	v1,28(t4)
	  p_dhtbl_mincode[l] = huffcode[p];
    1fec:	ace2001c 	sw	v0,28(a3)
	  p += p_xhtbl_bits[l] - 1;
    1ff0:	8c85001c 	lw	a1,28(a0)
	  size++;
	}
      while (huffsize[p] != size);
    }

  for (p_dhtbl_ml = 1, p = 0, l = 1; l <= 16; l++)
    1ff4:	24020007 	addiu	v0,zero,7
	}
      else
	{			/* We use -1 to indicate skipping. */
	  p_dhtbl_valptr[l] = p;
	  p_dhtbl_mincode[l] = huffcode[p];
	  p += p_xhtbl_bits[l] - 1;
    1ff8:	24a5ffff 	addiu	a1,a1,-1
    1ffc:	00a31821 	addu	v1,a1,v1
	  p_dhtbl_maxcode[l] = huffcode[p];
    2000:	00032880 	sll	a1,v1,0x2
    2004:	03a52821 	addu	a1,sp,a1
    2008:	8ca50404 	lw	a1,1028(a1)
	  p_dhtbl_ml = l;
	  p++;
    200c:	24630001 	addiu	v1,v1,1
      else
	{			/* We use -1 to indicate skipping. */
	  p_dhtbl_valptr[l] = p;
	  p_dhtbl_mincode[l] = huffcode[p];
	  p += p_xhtbl_bits[l] - 1;
	  p_dhtbl_maxcode[l] = huffcode[p];
    2010:	acc5001c 	sw	a1,28(a2)
      while (huffsize[p] != size);
    }

  for (p_dhtbl_ml = 1, p = 0, l = 1; l <= 16; l++)
    {
      if (p_xhtbl_bits[l] == 0)
    2014:	8c850020 	lw	a1,32(a0)
    2018:	00000000 	sll	zero,zero,0x0
    201c:	10a000b9 	beqz	a1,2304 <huff_make_dhuff_tb+0x5c0>
    2020:	2405ffff 	addiu	a1,zero,-1
	  p_dhtbl_maxcode[l] = -1;	/* Watch out JPEG is wrong here */
	}
      else
	{			/* We use -1 to indicate skipping. */
	  p_dhtbl_valptr[l] = p;
	  p_dhtbl_mincode[l] = huffcode[p];
    2024:	00031080 	sll	v0,v1,0x2
    2028:	03a21021 	addu	v0,sp,v0
    202c:	8c420404 	lw	v0,1028(v0)
	{
	  p_dhtbl_maxcode[l] = -1;	/* Watch out JPEG is wrong here */
	}
      else
	{			/* We use -1 to indicate skipping. */
	  p_dhtbl_valptr[l] = p;
    2030:	ad830020 	sw	v1,32(t4)
	  p_dhtbl_mincode[l] = huffcode[p];
    2034:	ace20020 	sw	v0,32(a3)
	  p += p_xhtbl_bits[l] - 1;
    2038:	8c850020 	lw	a1,32(a0)
	  size++;
	}
      while (huffsize[p] != size);
    }

  for (p_dhtbl_ml = 1, p = 0, l = 1; l <= 16; l++)
    203c:	24020008 	addiu	v0,zero,8
	}
      else
	{			/* We use -1 to indicate skipping. */
	  p_dhtbl_valptr[l] = p;
	  p_dhtbl_mincode[l] = huffcode[p];
	  p += p_xhtbl_bits[l] - 1;
    2040:	24a5ffff 	addiu	a1,a1,-1
    2044:	00a31821 	addu	v1,a1,v1
	  p_dhtbl_maxcode[l] = huffcode[p];
    2048:	00032880 	sll	a1,v1,0x2
    204c:	03a52821 	addu	a1,sp,a1
    2050:	8ca50404 	lw	a1,1028(a1)
	  p_dhtbl_ml = l;
	  p++;
    2054:	24630001 	addiu	v1,v1,1
      else
	{			/* We use -1 to indicate skipping. */
	  p_dhtbl_valptr[l] = p;
	  p_dhtbl_mincode[l] = huffcode[p];
	  p += p_xhtbl_bits[l] - 1;
	  p_dhtbl_maxcode[l] = huffcode[p];
    2058:	acc50020 	sw	a1,32(a2)
      while (huffsize[p] != size);
    }

  for (p_dhtbl_ml = 1, p = 0, l = 1; l <= 16; l++)
    {
      if (p_xhtbl_bits[l] == 0)
    205c:	8c850024 	lw	a1,36(a0)
    2060:	00000000 	sll	zero,zero,0x0
    2064:	10a000a5 	beqz	a1,22fc <huff_make_dhuff_tb+0x5b8>
    2068:	2405ffff 	addiu	a1,zero,-1
	  p_dhtbl_maxcode[l] = -1;	/* Watch out JPEG is wrong here */
	}
      else
	{			/* We use -1 to indicate skipping. */
	  p_dhtbl_valptr[l] = p;
	  p_dhtbl_mincode[l] = huffcode[p];
    206c:	00031080 	sll	v0,v1,0x2
    2070:	03a21021 	addu	v0,sp,v0
    2074:	8c420404 	lw	v0,1028(v0)
	{
	  p_dhtbl_maxcode[l] = -1;	/* Watch out JPEG is wrong here */
	}
      else
	{			/* We use -1 to indicate skipping. */
	  p_dhtbl_valptr[l] = p;
    2078:	ad830024 	sw	v1,36(t4)
	  p_dhtbl_mincode[l] = huffcode[p];
    207c:	ace20024 	sw	v0,36(a3)
	  p += p_xhtbl_bits[l] - 1;
    2080:	8c850024 	lw	a1,36(a0)
	  size++;
	}
      while (huffsize[p] != size);
    }

  for (p_dhtbl_ml = 1, p = 0, l = 1; l <= 16; l++)
    2084:	24020009 	addiu	v0,zero,9
	}
      else
	{			/* We use -1 to indicate skipping. */
	  p_dhtbl_valptr[l] = p;
	  p_dhtbl_mincode[l] = huffcode[p];
	  p += p_xhtbl_bits[l] - 1;
    2088:	24a5ffff 	addiu	a1,a1,-1
    208c:	00a31821 	addu	v1,a1,v1
	  p_dhtbl_maxcode[l] = huffcode[p];
    2090:	00032880 	sll	a1,v1,0x2
    2094:	03a52821 	addu	a1,sp,a1
    2098:	8ca50404 	lw	a1,1028(a1)
	  p_dhtbl_ml = l;
	  p++;
    209c:	24630001 	addiu	v1,v1,1
      else
	{			/* We use -1 to indicate skipping. */
	  p_dhtbl_valptr[l] = p;
	  p_dhtbl_mincode[l] = huffcode[p];
	  p += p_xhtbl_bits[l] - 1;
	  p_dhtbl_maxcode[l] = huffcode[p];
    20a0:	acc50024 	sw	a1,36(a2)
      while (huffsize[p] != size);
    }

  for (p_dhtbl_ml = 1, p = 0, l = 1; l <= 16; l++)
    {
      if (p_xhtbl_bits[l] == 0)
    20a4:	8c850028 	lw	a1,40(a0)
    20a8:	00000000 	sll	zero,zero,0x0
    20ac:	10a00091 	beqz	a1,22f4 <huff_make_dhuff_tb+0x5b0>
    20b0:	2405ffff 	addiu	a1,zero,-1
	  p_dhtbl_maxcode[l] = -1;	/* Watch out JPEG is wrong here */
	}
      else
	{			/* We use -1 to indicate skipping. */
	  p_dhtbl_valptr[l] = p;
	  p_dhtbl_mincode[l] = huffcode[p];
    20b4:	00031080 	sll	v0,v1,0x2
    20b8:	03a21021 	addu	v0,sp,v0
    20bc:	8c420404 	lw	v0,1028(v0)
	{
	  p_dhtbl_maxcode[l] = -1;	/* Watch out JPEG is wrong here */
	}
      else
	{			/* We use -1 to indicate skipping. */
	  p_dhtbl_valptr[l] = p;
    20c0:	ad830028 	sw	v1,40(t4)
	  p_dhtbl_mincode[l] = huffcode[p];
    20c4:	ace20028 	sw	v0,40(a3)
	  p += p_xhtbl_bits[l] - 1;
    20c8:	8c850028 	lw	a1,40(a0)
	  size++;
	}
      while (huffsize[p] != size);
    }

  for (p_dhtbl_ml = 1, p = 0, l = 1; l <= 16; l++)
    20cc:	2402000a 	addiu	v0,zero,10
	}
      else
	{			/* We use -1 to indicate skipping. */
	  p_dhtbl_valptr[l] = p;
	  p_dhtbl_mincode[l] = huffcode[p];
	  p += p_xhtbl_bits[l] - 1;
    20d0:	24a5ffff 	addiu	a1,a1,-1
    20d4:	00a31821 	addu	v1,a1,v1
	  p_dhtbl_maxcode[l] = huffcode[p];
    20d8:	00032880 	sll	a1,v1,0x2
    20dc:	03a52821 	addu	a1,sp,a1
    20e0:	8ca50404 	lw	a1,1028(a1)
	  p_dhtbl_ml = l;
	  p++;
    20e4:	24630001 	addiu	v1,v1,1
      else
	{			/* We use -1 to indicate skipping. */
	  p_dhtbl_valptr[l] = p;
	  p_dhtbl_mincode[l] = huffcode[p];
	  p += p_xhtbl_bits[l] - 1;
	  p_dhtbl_maxcode[l] = huffcode[p];
    20e8:	acc50028 	sw	a1,40(a2)
      while (huffsize[p] != size);
    }

  for (p_dhtbl_ml = 1, p = 0, l = 1; l <= 16; l++)
    {
      if (p_xhtbl_bits[l] == 0)
    20ec:	8c85002c 	lw	a1,44(a0)
    20f0:	00000000 	sll	zero,zero,0x0
    20f4:	10a0007d 	beqz	a1,22ec <huff_make_dhuff_tb+0x5a8>
    20f8:	2405ffff 	addiu	a1,zero,-1
	  p_dhtbl_maxcode[l] = -1;	/* Watch out JPEG is wrong here */
	}
      else
	{			/* We use -1 to indicate skipping. */
	  p_dhtbl_valptr[l] = p;
	  p_dhtbl_mincode[l] = huffcode[p];
    20fc:	00031080 	sll	v0,v1,0x2
    2100:	03a21021 	addu	v0,sp,v0
    2104:	8c420404 	lw	v0,1028(v0)
	{
	  p_dhtbl_maxcode[l] = -1;	/* Watch out JPEG is wrong here */
	}
      else
	{			/* We use -1 to indicate skipping. */
	  p_dhtbl_valptr[l] = p;
    2108:	ad83002c 	sw	v1,44(t4)
	  p_dhtbl_mincode[l] = huffcode[p];
    210c:	ace2002c 	sw	v0,44(a3)
	  p += p_xhtbl_bits[l] - 1;
    2110:	8c85002c 	lw	a1,44(a0)
	  size++;
	}
      while (huffsize[p] != size);
    }

  for (p_dhtbl_ml = 1, p = 0, l = 1; l <= 16; l++)
    2114:	2402000b 	addiu	v0,zero,11
	}
      else
	{			/* We use -1 to indicate skipping. */
	  p_dhtbl_valptr[l] = p;
	  p_dhtbl_mincode[l] = huffcode[p];
	  p += p_xhtbl_bits[l] - 1;
    2118:	24a5ffff 	addiu	a1,a1,-1
    211c:	00a31821 	addu	v1,a1,v1
	  p_dhtbl_maxcode[l] = huffcode[p];
    2120:	00032880 	sll	a1,v1,0x2
    2124:	03a52821 	addu	a1,sp,a1
    2128:	8ca50404 	lw	a1,1028(a1)
	  p_dhtbl_ml = l;
	  p++;
    212c:	24630001 	addiu	v1,v1,1
      else
	{			/* We use -1 to indicate skipping. */
	  p_dhtbl_valptr[l] = p;
	  p_dhtbl_mincode[l] = huffcode[p];
	  p += p_xhtbl_bits[l] - 1;
	  p_dhtbl_maxcode[l] = huffcode[p];
    2130:	acc5002c 	sw	a1,44(a2)
      while (huffsize[p] != size);
    }

  for (p_dhtbl_ml = 1, p = 0, l = 1; l <= 16; l++)
    {
      if (p_xhtbl_bits[l] == 0)
    2134:	8c850030 	lw	a1,48(a0)
    2138:	00000000 	sll	zero,zero,0x0
    213c:	10a00069 	beqz	a1,22e4 <huff_make_dhuff_tb+0x5a0>
    2140:	2405ffff 	addiu	a1,zero,-1
	  p_dhtbl_maxcode[l] = -1;	/* Watch out JPEG is wrong here */
	}
      else
	{			/* We use -1 to indicate skipping. */
	  p_dhtbl_valptr[l] = p;
	  p_dhtbl_mincode[l] = huffcode[p];
    2144:	00031080 	sll	v0,v1,0x2
    2148:	03a21021 	addu	v0,sp,v0
    214c:	8c420404 	lw	v0,1028(v0)
	{
	  p_dhtbl_maxcode[l] = -1;	/* Watch out JPEG is wrong here */
	}
      else
	{			/* We use -1 to indicate skipping. */
	  p_dhtbl_valptr[l] = p;
    2150:	ad830030 	sw	v1,48(t4)
	  p_dhtbl_mincode[l] = huffcode[p];
    2154:	ace20030 	sw	v0,48(a3)
	  p += p_xhtbl_bits[l] - 1;
    2158:	8c850030 	lw	a1,48(a0)
	  size++;
	}
      while (huffsize[p] != size);
    }

  for (p_dhtbl_ml = 1, p = 0, l = 1; l <= 16; l++)
    215c:	2402000c 	addiu	v0,zero,12
	}
      else
	{			/* We use -1 to indicate skipping. */
	  p_dhtbl_valptr[l] = p;
	  p_dhtbl_mincode[l] = huffcode[p];
	  p += p_xhtbl_bits[l] - 1;
    2160:	24a5ffff 	addiu	a1,a1,-1
    2164:	00a31821 	addu	v1,a1,v1
	  p_dhtbl_maxcode[l] = huffcode[p];
    2168:	00032880 	sll	a1,v1,0x2
    216c:	03a52821 	addu	a1,sp,a1
    2170:	8ca50404 	lw	a1,1028(a1)
	  p_dhtbl_ml = l;
	  p++;
    2174:	24630001 	addiu	v1,v1,1
      else
	{			/* We use -1 to indicate skipping. */
	  p_dhtbl_valptr[l] = p;
	  p_dhtbl_mincode[l] = huffcode[p];
	  p += p_xhtbl_bits[l] - 1;
	  p_dhtbl_maxcode[l] = huffcode[p];
    2178:	acc50030 	sw	a1,48(a2)
      while (huffsize[p] != size);
    }

  for (p_dhtbl_ml = 1, p = 0, l = 1; l <= 16; l++)
    {
      if (p_xhtbl_bits[l] == 0)
    217c:	8c850034 	lw	a1,52(a0)
    2180:	00000000 	sll	zero,zero,0x0
    2184:	10a00055 	beqz	a1,22dc <huff_make_dhuff_tb+0x598>
    2188:	2405ffff 	addiu	a1,zero,-1
	  p_dhtbl_maxcode[l] = -1;	/* Watch out JPEG is wrong here */
	}
      else
	{			/* We use -1 to indicate skipping. */
	  p_dhtbl_valptr[l] = p;
	  p_dhtbl_mincode[l] = huffcode[p];
    218c:	00031080 	sll	v0,v1,0x2
    2190:	03a21021 	addu	v0,sp,v0
    2194:	8c420404 	lw	v0,1028(v0)
	{
	  p_dhtbl_maxcode[l] = -1;	/* Watch out JPEG is wrong here */
	}
      else
	{			/* We use -1 to indicate skipping. */
	  p_dhtbl_valptr[l] = p;
    2198:	ad830034 	sw	v1,52(t4)
	  p_dhtbl_mincode[l] = huffcode[p];
    219c:	ace20034 	sw	v0,52(a3)
	  p += p_xhtbl_bits[l] - 1;
    21a0:	8c850034 	lw	a1,52(a0)
	  size++;
	}
      while (huffsize[p] != size);
    }

  for (p_dhtbl_ml = 1, p = 0, l = 1; l <= 16; l++)
    21a4:	2402000d 	addiu	v0,zero,13
	}
      else
	{			/* We use -1 to indicate skipping. */
	  p_dhtbl_valptr[l] = p;
	  p_dhtbl_mincode[l] = huffcode[p];
	  p += p_xhtbl_bits[l] - 1;
    21a8:	24a5ffff 	addiu	a1,a1,-1
    21ac:	00a31821 	addu	v1,a1,v1
	  p_dhtbl_maxcode[l] = huffcode[p];
    21b0:	00032880 	sll	a1,v1,0x2
    21b4:	03a52821 	addu	a1,sp,a1
    21b8:	8ca50404 	lw	a1,1028(a1)
	  p_dhtbl_ml = l;
	  p++;
    21bc:	24630001 	addiu	v1,v1,1
      else
	{			/* We use -1 to indicate skipping. */
	  p_dhtbl_valptr[l] = p;
	  p_dhtbl_mincode[l] = huffcode[p];
	  p += p_xhtbl_bits[l] - 1;
	  p_dhtbl_maxcode[l] = huffcode[p];
    21c0:	acc50034 	sw	a1,52(a2)
      while (huffsize[p] != size);
    }

  for (p_dhtbl_ml = 1, p = 0, l = 1; l <= 16; l++)
    {
      if (p_xhtbl_bits[l] == 0)
    21c4:	8c850038 	lw	a1,56(a0)
    21c8:	00000000 	sll	zero,zero,0x0
    21cc:	10a00041 	beqz	a1,22d4 <huff_make_dhuff_tb+0x590>
    21d0:	2405ffff 	addiu	a1,zero,-1
	  p_dhtbl_maxcode[l] = -1;	/* Watch out JPEG is wrong here */
	}
      else
	{			/* We use -1 to indicate skipping. */
	  p_dhtbl_valptr[l] = p;
	  p_dhtbl_mincode[l] = huffcode[p];
    21d4:	00031080 	sll	v0,v1,0x2
    21d8:	03a21021 	addu	v0,sp,v0
    21dc:	8c420404 	lw	v0,1028(v0)
	{
	  p_dhtbl_maxcode[l] = -1;	/* Watch out JPEG is wrong here */
	}
      else
	{			/* We use -1 to indicate skipping. */
	  p_dhtbl_valptr[l] = p;
    21e0:	ad830038 	sw	v1,56(t4)
	  p_dhtbl_mincode[l] = huffcode[p];
    21e4:	ace20038 	sw	v0,56(a3)
	  p += p_xhtbl_bits[l] - 1;
    21e8:	8c850038 	lw	a1,56(a0)
	  size++;
	}
      while (huffsize[p] != size);
    }

  for (p_dhtbl_ml = 1, p = 0, l = 1; l <= 16; l++)
    21ec:	2402000e 	addiu	v0,zero,14
	}
      else
	{			/* We use -1 to indicate skipping. */
	  p_dhtbl_valptr[l] = p;
	  p_dhtbl_mincode[l] = huffcode[p];
	  p += p_xhtbl_bits[l] - 1;
    21f0:	24a5ffff 	addiu	a1,a1,-1
    21f4:	00a31821 	addu	v1,a1,v1
	  p_dhtbl_maxcode[l] = huffcode[p];
    21f8:	00032880 	sll	a1,v1,0x2
    21fc:	03a52821 	addu	a1,sp,a1
    2200:	8ca50404 	lw	a1,1028(a1)
	  p_dhtbl_ml = l;
	  p++;
    2204:	24630001 	addiu	v1,v1,1
      else
	{			/* We use -1 to indicate skipping. */
	  p_dhtbl_valptr[l] = p;
	  p_dhtbl_mincode[l] = huffcode[p];
	  p += p_xhtbl_bits[l] - 1;
	  p_dhtbl_maxcode[l] = huffcode[p];
    2208:	acc50038 	sw	a1,56(a2)
      while (huffsize[p] != size);
    }

  for (p_dhtbl_ml = 1, p = 0, l = 1; l <= 16; l++)
    {
      if (p_xhtbl_bits[l] == 0)
    220c:	8c85003c 	lw	a1,60(a0)
    2210:	00000000 	sll	zero,zero,0x0
    2214:	10a0002d 	beqz	a1,22cc <huff_make_dhuff_tb+0x588>
    2218:	2405ffff 	addiu	a1,zero,-1
	  p_dhtbl_maxcode[l] = -1;	/* Watch out JPEG is wrong here */
	}
      else
	{			/* We use -1 to indicate skipping. */
	  p_dhtbl_valptr[l] = p;
	  p_dhtbl_mincode[l] = huffcode[p];
    221c:	00031080 	sll	v0,v1,0x2
    2220:	03a21021 	addu	v0,sp,v0
    2224:	8c420404 	lw	v0,1028(v0)
	{
	  p_dhtbl_maxcode[l] = -1;	/* Watch out JPEG is wrong here */
	}
      else
	{			/* We use -1 to indicate skipping. */
	  p_dhtbl_valptr[l] = p;
    2228:	ad83003c 	sw	v1,60(t4)
	  p_dhtbl_mincode[l] = huffcode[p];
    222c:	ace2003c 	sw	v0,60(a3)
	  p += p_xhtbl_bits[l] - 1;
    2230:	8c85003c 	lw	a1,60(a0)
	  size++;
	}
      while (huffsize[p] != size);
    }

  for (p_dhtbl_ml = 1, p = 0, l = 1; l <= 16; l++)
    2234:	2402000f 	addiu	v0,zero,15
	}
      else
	{			/* We use -1 to indicate skipping. */
	  p_dhtbl_valptr[l] = p;
	  p_dhtbl_mincode[l] = huffcode[p];
	  p += p_xhtbl_bits[l] - 1;
    2238:	24a5ffff 	addiu	a1,a1,-1
    223c:	00a31821 	addu	v1,a1,v1
	  p_dhtbl_maxcode[l] = huffcode[p];
    2240:	00032880 	sll	a1,v1,0x2
    2244:	03a52821 	addu	a1,sp,a1
    2248:	8ca50404 	lw	a1,1028(a1)
	  p_dhtbl_ml = l;
	  p++;
    224c:	24630001 	addiu	v1,v1,1
      else
	{			/* We use -1 to indicate skipping. */
	  p_dhtbl_valptr[l] = p;
	  p_dhtbl_mincode[l] = huffcode[p];
	  p += p_xhtbl_bits[l] - 1;
	  p_dhtbl_maxcode[l] = huffcode[p];
    2250:	acc5003c 	sw	a1,60(a2)
      while (huffsize[p] != size);
    }

  for (p_dhtbl_ml = 1, p = 0, l = 1; l <= 16; l++)
    {
      if (p_xhtbl_bits[l] == 0)
    2254:	8c850040 	lw	a1,64(a0)
    2258:	00000000 	sll	zero,zero,0x0
    225c:	14a0000d 	bnez	a1,2294 <huff_make_dhuff_tb+0x550>
    2260:	00000000 	sll	zero,zero,0x0
	{
	  p_dhtbl_maxcode[l] = -1;	/* Watch out JPEG is wrong here */
    2264:	2403ffff 	addiu	v1,zero,-1
    2268:	acc30040 	sw	v1,64(a2)
	  p_dhtbl_maxcode[l] = huffcode[p];
	  p_dhtbl_ml = l;
	  p++;
	}
    }
  p_dhtbl_maxcode[p_dhtbl_ml]++;
    226c:	00021880 	sll	v1,v0,0x2
    2270:	00c33021 	addu	a2,a2,v1
    2274:	8cc30000 	lw	v1,0(a2)
  return p_dhtbl_ml;
}
    2278:	27bd0808 	addiu	sp,sp,2056
	  p_dhtbl_maxcode[l] = huffcode[p];
	  p_dhtbl_ml = l;
	  p++;
	}
    }
  p_dhtbl_maxcode[p_dhtbl_ml]++;
    227c:	24630001 	addiu	v1,v1,1
  return p_dhtbl_ml;
}
    2280:	03e00008 	jr	ra
    2284:	acc30000 	sw	v1,0(a2)

  for (p_dhtbl_ml = 1, p = 0, l = 1; l <= 16; l++)
    {
      if (p_xhtbl_bits[l] == 0)
	{
	  p_dhtbl_maxcode[l] = -1;	/* Watch out JPEG is wrong here */
    2288:	acc20004 	sw	v0,4(a2)
    228c:	08000799 	j	1e64 <huff_make_dhuff_tb+0x120>
    2290:	00001821 	addu	v1,zero,zero
	}
      else
	{			/* We use -1 to indicate skipping. */
	  p_dhtbl_valptr[l] = p;
	  p_dhtbl_mincode[l] = huffcode[p];
    2294:	00031080 	sll	v0,v1,0x2
    2298:	03a21021 	addu	v0,sp,v0
    229c:	8c420404 	lw	v0,1028(v0)
	{
	  p_dhtbl_maxcode[l] = -1;	/* Watch out JPEG is wrong here */
	}
      else
	{			/* We use -1 to indicate skipping. */
	  p_dhtbl_valptr[l] = p;
    22a0:	ad830040 	sw	v1,64(t4)
	  p_dhtbl_mincode[l] = huffcode[p];
    22a4:	ace20040 	sw	v0,64(a3)
	  p += p_xhtbl_bits[l] - 1;
	  p_dhtbl_maxcode[l] = huffcode[p];
    22a8:	8c840040 	lw	a0,64(a0)
    22ac:	24020010 	addiu	v0,zero,16
    22b0:	00641821 	addu	v1,v1,a0
    22b4:	2463ffff 	addiu	v1,v1,-1
    22b8:	00031880 	sll	v1,v1,0x2
    22bc:	03a31821 	addu	v1,sp,v1
    22c0:	8c630404 	lw	v1,1028(v1)
    22c4:	0800089b 	j	226c <huff_make_dhuff_tb+0x528>
    22c8:	acc30040 	sw	v1,64(a2)

  for (p_dhtbl_ml = 1, p = 0, l = 1; l <= 16; l++)
    {
      if (p_xhtbl_bits[l] == 0)
	{
	  p_dhtbl_maxcode[l] = -1;	/* Watch out JPEG is wrong here */
    22cc:	08000895 	j	2254 <huff_make_dhuff_tb+0x510>
    22d0:	acc5003c 	sw	a1,60(a2)
    22d4:	08000883 	j	220c <huff_make_dhuff_tb+0x4c8>
    22d8:	acc50038 	sw	a1,56(a2)
    22dc:	08000871 	j	21c4 <huff_make_dhuff_tb+0x480>
    22e0:	acc50034 	sw	a1,52(a2)
    22e4:	0800085f 	j	217c <huff_make_dhuff_tb+0x438>
    22e8:	acc50030 	sw	a1,48(a2)
    22ec:	0800084d 	j	2134 <huff_make_dhuff_tb+0x3f0>
    22f0:	acc5002c 	sw	a1,44(a2)
    22f4:	0800083b 	j	20ec <huff_make_dhuff_tb+0x3a8>
    22f8:	acc50028 	sw	a1,40(a2)
    22fc:	08000829 	j	20a4 <huff_make_dhuff_tb+0x360>
    2300:	acc50024 	sw	a1,36(a2)
    2304:	08000817 	j	205c <huff_make_dhuff_tb+0x318>
    2308:	acc50020 	sw	a1,32(a2)
    230c:	08000805 	j	2014 <huff_make_dhuff_tb+0x2d0>
    2310:	acc5001c 	sw	a1,28(a2)
    2314:	080007f3 	j	1fcc <huff_make_dhuff_tb+0x288>
    2318:	acc50018 	sw	a1,24(a2)
    231c:	080007e1 	j	1f84 <huff_make_dhuff_tb+0x240>
    2320:	acc50014 	sw	a1,20(a2)
    2324:	080007cf 	j	1f3c <huff_make_dhuff_tb+0x1f8>
    2328:	acc50010 	sw	a1,16(a2)
    232c:	080007bd 	j	1ef4 <huff_make_dhuff_tb+0x1b0>
    2330:	acc5000c 	sw	a1,12(a2)
    2334:	acc20008 	sw	v0,8(a2)
    2338:	080007ab 	j	1eac <huff_make_dhuff_tb+0x168>
    233c:	24020001 	addiu	v0,zero,1

00002340 <DecodeHuffman>:
 * buf_getb() gets a bit from the read stream.
 */
int
buf_getb ()
{
  if (read_position < 0)
    2340:	8f82003c 	lw	v0,60(gp)
 *  
 */
int
DecodeHuffman (int *Xhuff_huffval, int Dhuff_ml,
	       int *Dhuff_maxcode, int *Dhuff_mincode, int *Dhuff_valptr)
{
    2344:	27bdffb8 	addiu	sp,sp,-72
    2348:	afb00024 	sw	s0,36(sp)
    234c:	afbf0044 	sw	ra,68(sp)
    2350:	afb70040 	sw	s7,64(sp)
    2354:	afb6003c 	sw	s6,60(sp)
    2358:	afb50038 	sw	s5,56(sp)
    235c:	afb40034 	sw	s4,52(sp)
    2360:	afb30030 	sw	s3,48(sp)
    2364:	afb2002c 	sw	s2,44(sp)
    2368:	afb10028 	sw	s1,40(sp)
 * buf_getb() gets a bit from the read stream.
 */
int
buf_getb ()
{
  if (read_position < 0)
    236c:	04400067 	bltz	v0,250c <DecodeHuffman+0x1cc>
    2370:	00808021 	addu	s0,a0,zero
    2374:	8f960010 	lw	s6,16(gp)
    2378:	2443ffff 	addiu	v1,v0,-1
    {
      current_read_byte = pgetc ();
      read_position = 7;
    }

  if (current_read_byte & bit_set_mask[read_position--])
    237c:	3c130000 	lui	s3,0x0
    2380:	00021080 	sll	v0,v0,0x2
    2384:	26730000 	addiu	s3,s3,0
    2388:	02621021 	addu	v0,s3,v0
    238c:	8c520000 	lw	s2,0(v0)
    2390:	af83003c 	sw	v1,60(gp)
    2394:	02d29024 	and	s2,s6,s2
	       int *Dhuff_maxcode, int *Dhuff_mincode, int *Dhuff_valptr)
{
  int code, l, p;

  code = buf_getb ();
  for (l = 1; code > Dhuff_maxcode[l]; l++)
    2398:	8cc20004 	lw	v0,4(a2)
      read_position = 7;
    }

  if (current_read_byte & bit_set_mask[read_position--])
    {
      return (1);
    239c:	0012902b 	sltu	s2,zero,s2
	       int *Dhuff_maxcode, int *Dhuff_mincode, int *Dhuff_valptr)
{
  int code, l, p;

  code = buf_getb ();
  for (l = 1; code > Dhuff_maxcode[l]; l++)
    23a0:	0052102a 	slt	v0,v0,s2
    23a4:	10400065 	beqz	v0,253c <DecodeHuffman+0x1fc>
    23a8:	00000000 	sll	zero,zero,0x0

  if ((temp = *CurHuffReadBuf++) == MARKER_MARKER)
    {				/* If MARKER then */
      if ((temp = *CurHuffReadBuf++))
	{			/* if next is not 0xff, then marker */
	  printf ("Unanticipated marker detected.\n");
    23ac:	3c170000 	lui	s7,0x0
	       int *Dhuff_maxcode, int *Dhuff_mincode, int *Dhuff_valptr)
{
  int code, l, p;

  code = buf_getb ();
  for (l = 1; code > Dhuff_maxcode[l]; l++)
    23b0:	24110008 	addiu	s1,zero,8
 * buf_getb() gets a bit from the read stream.
 */
int
buf_getb ()
{
  if (read_position < 0)
    23b4:	2414ffff 	addiu	s4,zero,-1
static int
pgetc ()
{
  int temp;

  if ((temp = *CurHuffReadBuf++) == MARKER_MARKER)
    23b8:	241500ff 	addiu	s5,zero,255
    {				/* If MARKER then */
      if ((temp = *CurHuffReadBuf++))
	{			/* if next is not 0xff, then marker */
	  printf ("Unanticipated marker detected.\n");
    23bc:	08000900 	j	2400 <DecodeHuffman+0xc0>
    23c0:	26f70000 	addiu	s7,s7,0
 * buf_getb() gets a bit from the read stream.
 */
int
buf_getb ()
{
  if (read_position < 0)
    23c4:	00601021 	addu	v0,v1,zero
    {
      current_read_byte = pgetc ();
      read_position = 7;
    }

  if (current_read_byte & bit_set_mask[read_position--])
    23c8:	00021080 	sll	v0,v0,0x2
    23cc:	02621021 	addu	v0,s3,v0
    23d0:	8c440000 	lw	a0,0(v0)
 * buf_getb() gets a bit from the read stream.
 */
int
buf_getb ()
{
  if (read_position < 0)
    23d4:	2463ffff 	addiu	v1,v1,-1
    {
      current_read_byte = pgetc ();
      read_position = 7;
    }

  if (current_read_byte & bit_set_mask[read_position--])
    23d8:	af83003c 	sw	v1,60(gp)
    23dc:	02c42024 	and	a0,s6,a0

/*
 *  
 */
int
DecodeHuffman (int *Xhuff_huffval, int Dhuff_ml,
    23e0:	00d11021 	addu	v0,a2,s1
      read_position = 7;
    }

  if (current_read_byte & bit_set_mask[read_position--])
    {
      return (1);
    23e4:	0004202b 	sltu	a0,zero,a0
	       int *Dhuff_maxcode, int *Dhuff_mincode, int *Dhuff_valptr)
{
  int code, l, p;

  code = buf_getb ();
  for (l = 1; code > Dhuff_maxcode[l]; l++)
    23e8:	8c420000 	lw	v0,0(v0)
    {
      code = (code << 1) + buf_getb ();
    23ec:	00929021 	addu	s2,a0,s2
	       int *Dhuff_maxcode, int *Dhuff_mincode, int *Dhuff_valptr)
{
  int code, l, p;

  code = buf_getb ();
  for (l = 1; code > Dhuff_maxcode[l]; l++)
    23f0:	0052102a 	slt	v0,v0,s2
    23f4:	10400019 	beqz	v0,245c <DecodeHuffman+0x11c>
    23f8:	26240004 	addiu	a0,s1,4
    23fc:	00808821 	addu	s1,a0,zero
 * buf_getb() gets a bit from the read stream.
 */
int
buf_getb ()
{
  if (read_position < 0)
    2400:	1474fff0 	bne	v1,s4,23c4 <DecodeHuffman+0x84>
    2404:	00129040 	sll	s2,s2,0x1
static int
pgetc ()
{
  int temp;

  if ((temp = *CurHuffReadBuf++) == MARKER_MARKER)
    2408:	8f820000 	lw	v0,0(gp)
    240c:	00000000 	sll	zero,zero,0x0
    2410:	90560000 	lbu	s6,0(v0)
    2414:	24430001 	addiu	v1,v0,1
    2418:	12d5002c 	beq	s6,s5,24cc <DecodeHuffman+0x18c>
    241c:	af830000 	sw	v1,0(gp)
int
buf_getb ()
{
  if (read_position < 0)
    {
      current_read_byte = pgetc ();
    2420:	24020007 	addiu	v0,zero,7
      read_position = 7;
    }

  if (current_read_byte & bit_set_mask[read_position--])
    2424:	00021080 	sll	v0,v0,0x2
    2428:	02621021 	addu	v0,s3,v0
    242c:	8c440000 	lw	a0,0(v0)
int
buf_getb ()
{
  if (read_position < 0)
    {
      current_read_byte = pgetc ();
    2430:	24030006 	addiu	v1,zero,6
    2434:	af960010 	sw	s6,16(gp)
      read_position = 7;
    }

  if (current_read_byte & bit_set_mask[read_position--])
    2438:	af83003c 	sw	v1,60(gp)
    243c:	02c42024 	and	a0,s6,a0

/*
 *  
 */
int
DecodeHuffman (int *Xhuff_huffval, int Dhuff_ml,
    2440:	00d11021 	addu	v0,a2,s1
      read_position = 7;
    }

  if (current_read_byte & bit_set_mask[read_position--])
    {
      return (1);
    2444:	0004202b 	sltu	a0,zero,a0
	       int *Dhuff_maxcode, int *Dhuff_mincode, int *Dhuff_valptr)
{
  int code, l, p;

  code = buf_getb ();
  for (l = 1; code > Dhuff_maxcode[l]; l++)
    2448:	8c420000 	lw	v0,0(v0)
    {
      code = (code << 1) + buf_getb ();
    244c:	00929021 	addu	s2,a0,s2
	       int *Dhuff_maxcode, int *Dhuff_mincode, int *Dhuff_valptr)
{
  int code, l, p;

  code = buf_getb ();
  for (l = 1; code > Dhuff_maxcode[l]; l++)
    2450:	0052102a 	slt	v0,v0,s2
    2454:	1440ffe9 	bnez	v0,23fc <DecodeHuffman+0xbc>
    2458:	26240004 	addiu	a0,s1,4
    {
      code = (code << 1) + buf_getb ();
    }

  if (code < Dhuff_maxcode[Dhuff_ml])
    245c:	00052880 	sll	a1,a1,0x2
    2460:	00c53021 	addu	a2,a2,a1
    2464:	8cc20000 	lw	v0,0(a2)
    2468:	00000000 	sll	zero,zero,0x0
    246c:	0242102a 	slt	v0,s2,v0
    2470:	10400045 	beqz	v0,2588 <DecodeHuffman+0x248>
    2474:	00000000 	sll	zero,zero,0x0
    {
      p = Dhuff_valptr[l] + code - Dhuff_mincode[l];
    2478:	8fa20058 	lw	v0,88(sp)
      main_result++;
      printf ("Huffman read error\n");
      EXIT;
    }

}
    247c:	8fbf0044 	lw	ra,68(sp)
      code = (code << 1) + buf_getb ();
    }

  if (code < Dhuff_maxcode[Dhuff_ml])
    {
      p = Dhuff_valptr[l] + code - Dhuff_mincode[l];
    2480:	00511021 	addu	v0,v0,s1
    2484:	8c430000 	lw	v1,0(v0)
    2488:	00f18821 	addu	s1,a3,s1
    248c:	8e220000 	lw	v0,0(s1)
    2490:	02439021 	addu	s2,s2,v1
    2494:	02429023 	subu	s2,s2,v0
      return (Xhuff_huffval[p]);
    2498:	00129080 	sll	s2,s2,0x2
    249c:	02128021 	addu	s0,s0,s2
      main_result++;
      printf ("Huffman read error\n");
      EXIT;
    }

}
    24a0:	8e020000 	lw	v0,0(s0)
    24a4:	8fb70040 	lw	s7,64(sp)
    24a8:	8fb6003c 	lw	s6,60(sp)
    24ac:	8fb50038 	lw	s5,56(sp)
    24b0:	8fb40034 	lw	s4,52(sp)
    24b4:	8fb30030 	lw	s3,48(sp)
    24b8:	8fb2002c 	lw	s2,44(sp)
    24bc:	8fb10028 	lw	s1,40(sp)
    24c0:	8fb00024 	lw	s0,36(sp)
    24c4:	03e00008 	jr	ra
    24c8:	27bd0048 	addiu	sp,sp,72
{
  int temp;

  if ((temp = *CurHuffReadBuf++) == MARKER_MARKER)
    {				/* If MARKER then */
      if ((temp = *CurHuffReadBuf++))
    24cc:	90560001 	lbu	s6,1(v0)
    24d0:	24420002 	addiu	v0,v0,2
    24d4:	16c00003 	bnez	s6,24e4 <DecodeHuffman+0x1a4>
    24d8:	af820000 	sw	v0,0(gp)
    24dc:	08000908 	j	2420 <DecodeHuffman+0xe0>
    24e0:	241600ff 	addiu	s6,zero,255
	{			/* if next is not 0xff, then marker */
	  printf ("Unanticipated marker detected.\n");
    24e4:	02e02021 	addu	a0,s7,zero
    24e8:	afa50010 	sw	a1,16(sp)
    24ec:	afa60014 	sw	a2,20(sp)
    24f0:	0c000000 	jal	0 <read_byte>
    24f4:	afa70018 	sw	a3,24(sp)
    24f8:	8fa50010 	lw	a1,16(sp)
    24fc:	8fa60014 	lw	a2,20(sp)
    2500:	8fa70018 	lw	a3,24(sp)
int
buf_getb ()
{
  if (read_position < 0)
    {
      current_read_byte = pgetc ();
    2504:	08000909 	j	2424 <DecodeHuffman+0xe4>
    2508:	24020007 	addiu	v0,zero,7
static int
pgetc ()
{
  int temp;

  if ((temp = *CurHuffReadBuf++) == MARKER_MARKER)
    250c:	8f820000 	lw	v0,0(gp)
    2510:	00000000 	sll	zero,zero,0x0
    2514:	24430001 	addiu	v1,v0,1
    2518:	90560000 	lbu	s6,0(v0)
    251c:	af830000 	sw	v1,0(gp)
    2520:	240300ff 	addiu	v1,zero,255
    2524:	12c30007 	beq	s6,v1,2544 <DecodeHuffman+0x204>
    2528:	00000000 	sll	zero,zero,0x0
int
buf_getb ()
{
  if (read_position < 0)
    {
      current_read_byte = pgetc ();
    252c:	af960010 	sw	s6,16(gp)
    2530:	24030006 	addiu	v1,zero,6
    2534:	080008df 	j	237c <DecodeHuffman+0x3c>
    2538:	24020007 	addiu	v0,zero,7
	       int *Dhuff_maxcode, int *Dhuff_mincode, int *Dhuff_valptr)
{
  int code, l, p;

  code = buf_getb ();
  for (l = 1; code > Dhuff_maxcode[l]; l++)
    253c:	08000917 	j	245c <DecodeHuffman+0x11c>
    2540:	24110004 	addiu	s1,zero,4
{
  int temp;

  if ((temp = *CurHuffReadBuf++) == MARKER_MARKER)
    {				/* If MARKER then */
      if ((temp = *CurHuffReadBuf++))
    2544:	90560001 	lbu	s6,1(v0)
    2548:	24420002 	addiu	v0,v0,2
    254c:	16c00003 	bnez	s6,255c <DecodeHuffman+0x21c>
    2550:	af820000 	sw	v0,0(gp)
    2554:	0800094b 	j	252c <DecodeHuffman+0x1ec>
    2558:	241600ff 	addiu	s6,zero,255
	{			/* if next is not 0xff, then marker */
	  printf ("Unanticipated marker detected.\n");
    255c:	3c040000 	lui	a0,0x0
    2560:	24840000 	addiu	a0,a0,0
    2564:	afa50010 	sw	a1,16(sp)
    2568:	afa60014 	sw	a2,20(sp)
    256c:	0c000000 	jal	0 <read_byte>
    2570:	afa70018 	sw	a3,24(sp)
    2574:	8fa50010 	lw	a1,16(sp)
    2578:	8fa60014 	lw	a2,20(sp)
    257c:	8fa70018 	lw	a3,24(sp)
int
buf_getb ()
{
  if (read_position < 0)
    {
      current_read_byte = pgetc ();
    2580:	0800094c 	j	2530 <DecodeHuffman+0x1f0>
    2584:	af960010 	sw	s6,16(gp)
      p = Dhuff_valptr[l] + code - Dhuff_mincode[l];
      return (Xhuff_huffval[p]);
    }
  else
    {
      main_result++;
    2588:	8f820000 	lw	v0,0(gp)
      printf ("Huffman read error\n");
    258c:	3c040000 	lui	a0,0x0
      p = Dhuff_valptr[l] + code - Dhuff_mincode[l];
      return (Xhuff_huffval[p]);
    }
  else
    {
      main_result++;
    2590:	24420001 	addiu	v0,v0,1
      printf ("Huffman read error\n");
    2594:	24840000 	addiu	a0,a0,0
    2598:	0c000000 	jal	0 <read_byte>
    259c:	af820000 	sw	v0,0(gp)
      EXIT;
    25a0:	0c000000 	jal	0 <read_byte>
    25a4:	00002021 	addu	a0,zero,zero

000025a8 <DecodeHuffMCU>:
/*
 * Decode one MCU
 */
void
DecodeHuffMCU (int *out_buf, int num_cmp)
{
    25a8:	27bdffb0 	addiu	sp,sp,-80
  int s, diff, tbl_no, *mptr, k, n, r;

  /*
   * Decode DC
   */
  tbl_no = p_jinfo_comps_info_dc_tbl_no[num_cmp];
    25ac:	27820000 	addiu	v0,gp,0
/*
 * Decode one MCU
 */
void
DecodeHuffMCU (int *out_buf, int num_cmp)
{
    25b0:	afb40038 	sw	s4,56(sp)
    25b4:	afb30034 	sw	s3,52(sp)
    25b8:	afb20030 	sw	s2,48(sp)
    25bc:	afb1002c 	sw	s1,44(sp)
    25c0:	afb00028 	sw	s0,40(sp)
    25c4:	afbf004c 	sw	ra,76(sp)
    25c8:	afbe0048 	sw	s8,72(sp)
    25cc:	afb70044 	sw	s7,68(sp)
    25d0:	afb60040 	sw	s6,64(sp)
    25d4:	afb5003c 	sw	s5,60(sp)
  int s, diff, tbl_no, *mptr, k, n, r;

  /*
   * Decode DC
   */
  tbl_no = p_jinfo_comps_info_dc_tbl_no[num_cmp];
    25d8:	00451021 	addu	v0,v0,a1
    25dc:	80420000 	lb	v0,0(v0)
  s = DecodeHuffman (&p_jinfo_dc_xhuff_tbl_huffval[tbl_no][0],
    25e0:	27830000 	addiu	v1,gp,0
    25e4:	00029080 	sll	s2,v0,0x2
    25e8:	00029a80 	sll	s3,v0,0xa
		     p_jinfo_dc_dhuff_tbl_ml[tbl_no],
		     &p_jinfo_dc_dhuff_tbl_maxcode[tbl_no][0],
    25ec:	00028100 	sll	s0,v0,0x4
    25f0:	000211c0 	sll	v0,v0,0x7
    25f4:	02028021 	addu	s0,s0,v0

  /*
   * Decode DC
   */
  tbl_no = p_jinfo_comps_info_dc_tbl_no[num_cmp];
  s = DecodeHuffman (&p_jinfo_dc_xhuff_tbl_huffval[tbl_no][0],
    25f8:	00721821 	addu	v1,v1,s2
    25fc:	3c020000 	lui	v0,0x0
/*
 * Decode one MCU
 */
void
DecodeHuffMCU (int *out_buf, int num_cmp)
{
    2600:	00808821 	addu	s1,a0,zero

  /*
   * Decode DC
   */
  tbl_no = p_jinfo_comps_info_dc_tbl_no[num_cmp];
  s = DecodeHuffman (&p_jinfo_dc_xhuff_tbl_huffval[tbl_no][0],
    2604:	3c060000 	lui	a2,0x0
    2608:	3c040000 	lui	a0,0x0
    260c:	3c070000 	lui	a3,0x0
    2610:	8c650000 	lw	a1,0(v1)
    2614:	02539821 	addu	s3,s2,s3
    2618:	24420000 	addiu	v0,v0,0
    261c:	24840000 	addiu	a0,a0,0
    2620:	24c60000 	addiu	a2,a2,0
    2624:	24e70000 	addiu	a3,a3,0
    2628:	00501021 	addu	v0,v0,s0
    262c:	00932021 	addu	a0,a0,s3
    2630:	00d03021 	addu	a2,a2,s0
    2634:	00f03821 	addu	a3,a3,s0
    2638:	0c000000 	jal	0 <read_byte>
    263c:	afa20010 	sw	v0,16(sp)
		     p_jinfo_dc_dhuff_tbl_ml[tbl_no],
		     &p_jinfo_dc_dhuff_tbl_maxcode[tbl_no][0],
		     &p_jinfo_dc_dhuff_tbl_mincode[tbl_no][0],
		     &p_jinfo_dc_dhuff_tbl_valptr[tbl_no][0]);

  if (s)
    2640:	14400053 	bnez	v0,2790 <DecodeHuffMCU+0x1e8>
    2644:	0040a021 	addu	s4,v0,zero

  /*
   * Decode AC
   */
  /* Set all values to zero */
  for (mptr = out_buf + 1; mptr < out_buf + DCTSIZE2; mptr++)
    2648:	26220004 	addiu	v0,s1,4

/*
 * Decode one MCU
 */
void
DecodeHuffMCU (int *out_buf, int num_cmp)
    264c:	26230100 	addiu	v1,s1,256
   * Decode AC
   */
  /* Set all values to zero */
  for (mptr = out_buf + 1; mptr < out_buf + DCTSIZE2; mptr++)
    {
      *mptr = 0;
    2650:	ac400000 	sw	zero,0(v0)

  /*
   * Decode AC
   */
  /* Set all values to zero */
  for (mptr = out_buf + 1; mptr < out_buf + DCTSIZE2; mptr++)
    2654:	24420004 	addiu	v0,v0,4
    2658:	1443fffd 	bne	v0,v1,2650 <DecodeHuffMCU+0xa8>
    265c:	3c160000 	lui	s6,0x0
      else
	{
	  break;
	}
    }
}
    2660:	26d60000 	addiu	s6,s6,0
    2664:	02d3b021 	addu	s6,s6,s3
    2668:	3c150000 	lui	s5,0x0
    266c:	3c140000 	lui	s4,0x0
    2670:	3c130000 	lui	s3,0x0
    2674:	26b50000 	addiu	s5,s5,0
    2678:	26940000 	addiu	s4,s4,0
    267c:	26730000 	addiu	s3,s3,0
      *mptr = 0;
    }

  for (k = 1; k < DCTSIZE2;)
    {				/* JPEG Mistake */
      r = DecodeHuffman (&p_jinfo_ac_xhuff_tbl_huffval[tbl_no][0],
    2680:	27820000 	addiu	v0,gp,0
	    break;
	  out_buf[k] = buf_getv (s);	/* Get s bits */
	  s--;			/* Align s */
	  if ((out_buf[k] & bit_set_mask[s]) == 0)
	    {			/* Also (1 << s) */
	      out_buf[k] |= extend_mask[s];	/* Also  (-1 << s) + 1 */
    2684:	3c1e0000 	lui	s8,0x0
      else
	{
	  break;
	}
    }
}
    2688:	02b0a821 	addu	s5,s5,s0
    268c:	0290a021 	addu	s4,s4,s0
    2690:	02709821 	addu	s3,s3,s0
      *mptr = 0;
    }

  for (k = 1; k < DCTSIZE2;)
    {				/* JPEG Mistake */
      r = DecodeHuffman (&p_jinfo_ac_xhuff_tbl_huffval[tbl_no][0],
    2694:	00529021 	addu	s2,v0,s2

  /*
   * Decode AC
   */
  /* Set all values to zero */
  for (mptr = out_buf + 1; mptr < out_buf + DCTSIZE2; mptr++)
    2698:	24100001 	addiu	s0,zero,1
	      out_buf[k] |= extend_mask[s];	/* Also  (-1 << s) + 1 */
	      out_buf[k]++;	/* Increment 2's c */
	    }
	  k++;			/* Goto next element */
	}
      else if (n == 15)		/* Zero run length code extnd */
    269c:	2417000f 	addiu	s7,zero,15
	    break;
	  out_buf[k] = buf_getv (s);	/* Get s bits */
	  s--;			/* Align s */
	  if ((out_buf[k] & bit_set_mask[s]) == 0)
	    {			/* Also (1 << s) */
	      out_buf[k] |= extend_mask[s];	/* Also  (-1 << s) + 1 */
    26a0:	27de572c 	addiu	s8,s8,22316
      *mptr = 0;
    }

  for (k = 1; k < DCTSIZE2;)
    {				/* JPEG Mistake */
      r = DecodeHuffman (&p_jinfo_ac_xhuff_tbl_huffval[tbl_no][0],
    26a4:	8e450000 	lw	a1,0(s2)
    26a8:	02c02021 	addu	a0,s6,zero
    26ac:	02a03021 	addu	a2,s5,zero
    26b0:	02803821 	addu	a3,s4,zero
    26b4:	0c000000 	jal	0 <read_byte>
    26b8:	afb30010 	sw	s3,16(sp)
			 p_jinfo_ac_dhuff_tbl_ml[tbl_no],
			 &p_jinfo_ac_dhuff_tbl_maxcode[tbl_no][0],
			 &p_jinfo_ac_dhuff_tbl_mincode[tbl_no][0],
			 &p_jinfo_ac_dhuff_tbl_valptr[tbl_no][0]);

      s = r & 0xf;		/* Find significant bits */
    26bc:	3045000f 	andi	a1,v0,0xf
      n = (r >> 4) & 0xf;	/* n = run-length */
    26c0:	00021103 	sra	v0,v0,0x4
    26c4:	3042000f 	andi	v0,v0,0xf

      if (s)
	{
	  if ((k += n) >= DCTSIZE2)	/* JPEG Mistake */
    26c8:	00501821 	addu	v1,v0,s0
	    break;
	  out_buf[k] = buf_getv (s);	/* Get s bits */
    26cc:	00033080 	sll	a2,v1,0x2
    26d0:	00a02021 	addu	a0,a1,zero
    26d4:	02263021 	addu	a2,s1,a2
			 &p_jinfo_ac_dhuff_tbl_valptr[tbl_no][0]);

      s = r & 0xf;		/* Find significant bits */
      n = (r >> 4) & 0xf;	/* n = run-length */

      if (s)
    26d8:	10a00029 	beqz	a1,2780 <DecodeHuffMCU+0x1d8>
    26dc:	28670040 	slti	a3,v1,64
	{
	  if ((k += n) >= DCTSIZE2)	/* JPEG Mistake */
    26e0:	10e0001b 	beqz	a3,2750 <DecodeHuffMCU+0x1a8>
    26e4:	00000000 	sll	zero,zero,0x0
	    break;
	  out_buf[k] = buf_getv (s);	/* Get s bits */
    26e8:	afa3001c 	sw	v1,28(sp)
    26ec:	afa50018 	sw	a1,24(sp)
    26f0:	0c000000 	jal	0 <read_byte>
    26f4:	afa60020 	sw	a2,32(sp)
	  s--;			/* Align s */
    26f8:	8fa50018 	lw	a1,24(sp)
	  if ((out_buf[k] & bit_set_mask[s]) == 0)
    26fc:	3c040000 	lui	a0,0x0
      if (s)
	{
	  if ((k += n) >= DCTSIZE2)	/* JPEG Mistake */
	    break;
	  out_buf[k] = buf_getv (s);	/* Get s bits */
	  s--;			/* Align s */
    2700:	24a5ffff 	addiu	a1,a1,-1
	  if ((out_buf[k] & bit_set_mask[s]) == 0)
    2704:	00052880 	sll	a1,a1,0x2
    2708:	24840000 	addiu	a0,a0,0
	    {			/* Also (1 << s) */
	      out_buf[k] |= extend_mask[s];	/* Also  (-1 << s) + 1 */
    270c:	00be3821 	addu	a3,a1,s8
	{
	  if ((k += n) >= DCTSIZE2)	/* JPEG Mistake */
	    break;
	  out_buf[k] = buf_getv (s);	/* Get s bits */
	  s--;			/* Align s */
	  if ((out_buf[k] & bit_set_mask[s]) == 0)
    2710:	00a42821 	addu	a1,a1,a0
    2714:	8ca40000 	lw	a0,0(a1)

      if (s)
	{
	  if ((k += n) >= DCTSIZE2)	/* JPEG Mistake */
	    break;
	  out_buf[k] = buf_getv (s);	/* Get s bits */
    2718:	8fa60020 	lw	a2,32(sp)
	  s--;			/* Align s */
	  if ((out_buf[k] & bit_set_mask[s]) == 0)
    271c:	00442024 	and	a0,v0,a0

      if (s)
	{
	  if ((k += n) >= DCTSIZE2)	/* JPEG Mistake */
	    break;
	  out_buf[k] = buf_getv (s);	/* Get s bits */
    2720:	acc20000 	sw	v0,0(a2)
	  s--;			/* Align s */
	  if ((out_buf[k] & bit_set_mask[s]) == 0)
    2724:	8fa3001c 	lw	v1,28(sp)
    2728:	14800006 	bnez	a0,2744 <DecodeHuffMCU+0x19c>
    272c:	24700001 	addiu	s0,v1,1
	    {			/* Also (1 << s) */
	      out_buf[k] |= extend_mask[s];	/* Also  (-1 << s) + 1 */
    2730:	8ce40000 	lw	a0,0(a3)
    2734:	00000000 	sll	zero,zero,0x0
    2738:	00441025 	or	v0,v0,a0
	      out_buf[k]++;	/* Increment 2's c */
    273c:	24420001 	addiu	v0,v0,1
    2740:	acc20000 	sw	v0,0(a2)
  for (mptr = out_buf + 1; mptr < out_buf + DCTSIZE2; mptr++)
    {
      *mptr = 0;
    }

  for (k = 1; k < DCTSIZE2;)
    2744:	2a020040 	slti	v0,s0,64
    2748:	1440ffd6 	bnez	v0,26a4 <DecodeHuffMCU+0xfc>
    274c:	00000000 	sll	zero,zero,0x0
      else
	{
	  break;
	}
    }
}
    2750:	8fbf004c 	lw	ra,76(sp)
    2754:	8fbe0048 	lw	s8,72(sp)
    2758:	8fb70044 	lw	s7,68(sp)
    275c:	8fb60040 	lw	s6,64(sp)
    2760:	8fb5003c 	lw	s5,60(sp)
    2764:	8fb40038 	lw	s4,56(sp)
    2768:	8fb30034 	lw	s3,52(sp)
    276c:	8fb20030 	lw	s2,48(sp)
    2770:	8fb1002c 	lw	s1,44(sp)
    2774:	8fb00028 	lw	s0,40(sp)
    2778:	03e00008 	jr	ra
    277c:	27bd0050 	addiu	sp,sp,80
	      out_buf[k] |= extend_mask[s];	/* Also  (-1 << s) + 1 */
	      out_buf[k]++;	/* Increment 2's c */
	    }
	  k++;			/* Goto next element */
	}
      else if (n == 15)		/* Zero run length code extnd */
    2780:	1457fff3 	bne	v0,s7,2750 <DecodeHuffMCU+0x1a8>
    2784:	26100010 	addiu	s0,s0,16
  for (mptr = out_buf + 1; mptr < out_buf + DCTSIZE2; mptr++)
    {
      *mptr = 0;
    }

  for (k = 1; k < DCTSIZE2;)
    2788:	080009d2 	j	2748 <DecodeHuffMCU+0x1a0>
    278c:	2a020040 	slti	v0,s0,64
		     &p_jinfo_dc_dhuff_tbl_mincode[tbl_no][0],
		     &p_jinfo_dc_dhuff_tbl_valptr[tbl_no][0]);

  if (s)
    {
      diff = buf_getv (s);
    2790:	0c000000 	jal	0 <read_byte>
    2794:	00402021 	addu	a0,v0,zero
      s--;
    2798:	2694ffff 	addiu	s4,s4,-1
      if ((diff & bit_set_mask[s]) == 0)
    279c:	3c030000 	lui	v1,0x0
    27a0:	0014a080 	sll	s4,s4,0x2
    27a4:	24630000 	addiu	v1,v1,0
    27a8:	02831821 	addu	v1,s4,v1
    27ac:	8c630000 	lw	v1,0(v1)
    27b0:	00000000 	sll	zero,zero,0x0
    27b4:	00431824 	and	v1,v0,v1
    27b8:	14600007 	bnez	v1,27d8 <DecodeHuffMCU+0x230>
    27bc:	3c030000 	lui	v1,0x0
	{
	  diff |= extend_mask[s];
    27c0:	2463572c 	addiu	v1,v1,22316
    27c4:	0283a021 	addu	s4,s4,v1
    27c8:	8e830000 	lw	v1,0(s4)
    27cc:	00000000 	sll	zero,zero,0x0
    27d0:	00431025 	or	v0,v0,v1
	  diff++;
    27d4:	24420001 	addiu	v0,v0,1
	}

      diff += *out_buf;		/* Change the last DC */
    27d8:	8e230000 	lw	v1,0(s1)
    27dc:	00000000 	sll	zero,zero,0x0
    27e0:	00621021 	addu	v0,v1,v0
      *out_buf = diff;
    27e4:	08000992 	j	2648 <DecodeHuffMCU+0xa0>
    27e8:	ae220000 	sw	v0,0(s1)

000027ec <decode_block>:
/*
 * Decode one block
 */
void
decode_block (int comp_no, int *out_buf, int *HuffBuff)
{
    27ec:	27bdfed8 	addiu	sp,sp,-296
    27f0:	afb0011c 	sw	s0,284(sp)
    27f4:	00808021 	addu	s0,a0,zero
    27f8:	afb10120 	sw	s1,288(sp)
  int QuantBuff[DCTSIZE2];
  unsigned int *p_quant_tbl;

  DecodeHuffMCU (HuffBuff, comp_no);
    27fc:	00c02021 	addu	a0,a2,zero
/*
 * Decode one block
 */
void
decode_block (int comp_no, int *out_buf, int *HuffBuff)
{
    2800:	00a08821 	addu	s1,a1,zero
  int QuantBuff[DCTSIZE2];
  unsigned int *p_quant_tbl;

  DecodeHuffMCU (HuffBuff, comp_no);
    2804:	afa60110 	sw	a2,272(sp)
/*
 * Decode one block
 */
void
decode_block (int comp_no, int *out_buf, int *HuffBuff)
{
    2808:	afbf0124 	sw	ra,292(sp)
  int QuantBuff[DCTSIZE2];
  unsigned int *p_quant_tbl;

  DecodeHuffMCU (HuffBuff, comp_no);
    280c:	0c000000 	jal	0 <read_byte>
    2810:	02002821 	addu	a1,s0,zero
    2814:	3c080000 	lui	t0,0x0
void
IZigzagMatrix (int *imatrix, int *omatrix)
{
  int i;

  for (i = 0; i < DCTSIZE2; i++)
    2818:	8fa60110 	lw	a2,272(sp)
decode_block (int comp_no, int *out_buf, int *HuffBuff)
{
  int QuantBuff[DCTSIZE2];
  unsigned int *p_quant_tbl;

  DecodeHuffMCU (HuffBuff, comp_no);
    281c:	00001021 	addu	v0,zero,zero
    2820:	27a40010 	addiu	a0,sp,16
    2824:	25080000 	addiu	t0,t0,0
void
IZigzagMatrix (int *imatrix, int *omatrix)
{
  int i;

  for (i = 0; i < DCTSIZE2; i++)
    2828:	24070100 	addiu	a3,zero,256

/*
 * Decode one block
 */
void
decode_block (int comp_no, int *out_buf, int *HuffBuff)
    282c:	01021821 	addu	v1,t0,v0

  for (i = 0; i < DCTSIZE2; i++)
    
    {
      
*(omatrix++) = imatrix[zigzag_index[i]];
    2830:	8c650000 	lw	a1,0(v1)

/*
 * Decode one block
 */
void
decode_block (int comp_no, int *out_buf, int *HuffBuff)
    2834:	00821821 	addu	v1,a0,v0

  for (i = 0; i < DCTSIZE2; i++)
    
    {
      
*(omatrix++) = imatrix[zigzag_index[i]];
    2838:	00052880 	sll	a1,a1,0x2
    283c:	00c52821 	addu	a1,a2,a1
    2840:	8ca50000 	lw	a1,0(a1)
    2844:	24420004 	addiu	v0,v0,4
void
IZigzagMatrix (int *imatrix, int *omatrix)
{
  int i;

  for (i = 0; i < DCTSIZE2; i++)
    2848:	1447fff8 	bne	v0,a3,282c <decode_block+0x40>
    284c:	ac650000 	sw	a1,0(v1)
  DecodeHuffMCU (HuffBuff, comp_no);

  IZigzagMatrix (HuffBuff, QuantBuff);

  p_quant_tbl =
    &p_jinfo_quant_tbl_quantval[(int)p_jinfo_comps_info_quant_tbl_no[comp_no]][DCTSIZE2];
    2850:	27820000 	addiu	v0,gp,0
    2854:	00508021 	addu	s0,v0,s0
    2858:	82020000 	lb	v0,0(s0)

  DecodeHuffMCU (HuffBuff, comp_no);

  IZigzagMatrix (HuffBuff, QuantBuff);

  p_quant_tbl =
    285c:	3c030000 	lui	v1,0x0
    &p_jinfo_quant_tbl_quantval[(int)p_jinfo_comps_info_quant_tbl_no[comp_no]][DCTSIZE2];
    2860:	24420001 	addiu	v0,v0,1
    2864:	00021200 	sll	v0,v0,0x8

  DecodeHuffMCU (HuffBuff, comp_no);

  IZigzagMatrix (HuffBuff, QuantBuff);

  p_quant_tbl =
    2868:	24630000 	addiu	v1,v1,0
    286c:	00621821 	addu	v1,v1,v0

/*
 * Decode one block
 */
void
decode_block (int comp_no, int *out_buf, int *HuffBuff)
    2870:	27a50110 	addiu	a1,sp,272
void
IQuantize (int *matrix, int *qmatrix)
{
  int *mptr;

  for (mptr = matrix; mptr < matrix + DCTSIZE2; mptr++)
    2874:	00801021 	addu	v0,a0,zero
    {
      *mptr = *mptr * (*qmatrix);
    2878:	8c660000 	lw	a2,0(v1)
    287c:	8c470000 	lw	a3,0(v0)
    2880:	00000000 	sll	zero,zero,0x0
    2884:	00e60018 	mult	a3,a2
    2888:	00003012 	mflo	a2
    288c:	ac460000 	sw	a2,0(v0)
void
IQuantize (int *matrix, int *qmatrix)
{
  int *mptr;

  for (mptr = matrix; mptr < matrix + DCTSIZE2; mptr++)
    2890:	24420004 	addiu	v0,v0,4
    2894:	1445fff8 	bne	v0,a1,2878 <decode_block+0x8c>
    2898:	24630004 	addiu	v1,v1,4

  p_quant_tbl =
    &p_jinfo_quant_tbl_quantval[(int)p_jinfo_comps_info_quant_tbl_no[comp_no]][DCTSIZE2];
  IQuantize (QuantBuff, p_quant_tbl);

  ChenIDct (QuantBuff, out_buf);
    289c:	0c000000 	jal	0 <read_byte>
    28a0:	02202821 	addu	a1,s1,zero
 */
void
PostshiftIDctMatrix (int *matrix, int shift)
{
  int *mptr;
  for (mptr = matrix; mptr < matrix + DCTSIZE2; mptr++)
    28a4:	02201021 	addu	v0,s1,zero

  p_quant_tbl =
    &p_jinfo_quant_tbl_quantval[(int)p_jinfo_comps_info_quant_tbl_no[comp_no]][DCTSIZE2];
  IQuantize (QuantBuff, p_quant_tbl);

  ChenIDct (QuantBuff, out_buf);
    28a8:	24030040 	addiu	v1,zero,64
PostshiftIDctMatrix (int *matrix, int shift)
{
  int *mptr;
  for (mptr = matrix; mptr < matrix + DCTSIZE2; mptr++)
    {
      *mptr += shift;
    28ac:	8c440000 	lw	a0,0(v0)
 */
void
PostshiftIDctMatrix (int *matrix, int shift)
{
  int *mptr;
  for (mptr = matrix; mptr < matrix + DCTSIZE2; mptr++)
    28b0:	2463ffff 	addiu	v1,v1,-1
    {
      *mptr += shift;
    28b4:	24840080 	addiu	a0,a0,128
    28b8:	ac440000 	sw	a0,0(v0)
 */
void
PostshiftIDctMatrix (int *matrix, int shift)
{
  int *mptr;
  for (mptr = matrix; mptr < matrix + DCTSIZE2; mptr++)
    28bc:	1460fffb 	bnez	v1,28ac <decode_block+0xc0>
    28c0:	24420004 	addiu	v0,v0,4
    28c4:	24020040 	addiu	v0,zero,64
	{
	  *mptr = 0;
	}
      else if (*mptr > Bound)
	{
	  *mptr = Bound;
    28c8:	08000a3a 	j	28e8 <decode_block+0xfc>
    28cc:	240500ff 	addiu	a1,zero,255
    {
      if (*mptr < 0)
	{
	  *mptr = 0;
	}
      else if (*mptr > Bound)
    28d0:	14800002 	bnez	a0,28dc <decode_block+0xf0>
    28d4:	00000000 	sll	zero,zero,0x0
	{
	  *mptr = Bound;
    28d8:	ae250000 	sw	a1,0(s1)
void
BoundIDctMatrix (int *matrix, int Bound)
{
  int *mptr;

  for (mptr = matrix; mptr < matrix + DCTSIZE2; mptr++)
    28dc:	2442ffff 	addiu	v0,v0,-1
    28e0:	10400009 	beqz	v0,2908 <decode_block+0x11c>
    28e4:	26310004 	addiu	s1,s1,4
    {
      if (*mptr < 0)
    28e8:	8e230000 	lw	v1,0(s1)
    28ec:	00000000 	sll	zero,zero,0x0
    28f0:	0461fff7 	bgez	v1,28d0 <decode_block+0xe4>
    28f4:	28640100 	slti	a0,v1,256
void
BoundIDctMatrix (int *matrix, int Bound)
{
  int *mptr;

  for (mptr = matrix; mptr < matrix + DCTSIZE2; mptr++)
    28f8:	2442ffff 	addiu	v0,v0,-1
    {
      if (*mptr < 0)
	{
	  *mptr = 0;
    28fc:	ae200000 	sw	zero,0(s1)
void
BoundIDctMatrix (int *matrix, int Bound)
{
  int *mptr;

  for (mptr = matrix; mptr < matrix + DCTSIZE2; mptr++)
    2900:	1440fff9 	bnez	v0,28e8 <decode_block+0xfc>
    2904:	26310004 	addiu	s1,s1,4

  PostshiftIDctMatrix (out_buf, IDCT_SHIFT);

  BoundIDctMatrix (out_buf, IDCT_BOUNT);

}
    2908:	8fbf0124 	lw	ra,292(sp)
    290c:	8fb10120 	lw	s1,288(sp)
    2910:	8fb0011c 	lw	s0,284(sp)
    2914:	03e00008 	jr	ra
    2918:	27bd0128 	addiu	sp,sp,296

0000291c <decode_start>:


void
decode_start (int *out_data_image_width, int *out_data_image_height,
	      int *out_data_comp_vpos, int *out_data_comp_hpos)
{
    291c:	27bdf588 	addiu	sp,sp,-2680
    2920:	afa60a80 	sw	a2,2688(sp)
    }

  /*
   * Set the size of image to output buffer
   */
  *out_data_image_width = p_jinfo_image_width;
    2924:	87830000 	lh	v1,0(gp)
  int CurrentMCU = 0;
  int HuffBuff[NUM_COMPONENT][DCTSIZE2];
  int IDCTBuff[6][DCTSIZE2];

  /* Read buffer */
  CurHuffReadBuf = p_jinfo_jpeg_data;
    2928:	8f860000 	lw	a2,0(gp)

  /*
   * Set the size of image to output buffer
   */
  *out_data_image_width = p_jinfo_image_width;
  *out_data_image_height = p_jinfo_image_height;
    292c:	87820000 	lh	v0,0(gp)
  int CurrentMCU = 0;
  int HuffBuff[NUM_COMPONENT][DCTSIZE2];
  int IDCTBuff[6][DCTSIZE2];

  /* Read buffer */
  CurHuffReadBuf = p_jinfo_jpeg_data;
    2930:	af860000 	sw	a2,0(gp)


void
decode_start (int *out_data_image_width, int *out_data_image_height,
	      int *out_data_comp_vpos, int *out_data_comp_hpos)
{
    2934:	afbf0a74 	sw	ra,2676(sp)
    2938:	afbe0a70 	sw	s8,2672(sp)
    293c:	afb70a6c 	sw	s7,2668(sp)
    2940:	afb60a68 	sw	s6,2664(sp)
    2944:	afb50a64 	sw	s5,2660(sp)
    2948:	afb40a60 	sw	s4,2656(sp)
    294c:	afb30a5c 	sw	s3,2652(sp)
    2950:	afb20a58 	sw	s2,2648(sp)
    2954:	afb10a54 	sw	s1,2644(sp)
    2958:	afb00a50 	sw	s0,2640(sp)
    295c:	afa70a84 	sw	a3,2692(sp)
  /*
   * Initial value of DC element is 0
   */
  for (i = 0; i < NUM_COMPONENT; i++)
    {
      HuffBuff[i][0] = 0;
    2960:	afa00120 	sw	zero,288(sp)
    2964:	afa00220 	sw	zero,544(sp)
    2968:	afa00320 	sw	zero,800(sp)
    }

  /*
   * Set the size of image to output buffer
   */
  *out_data_image_width = p_jinfo_image_width;
    296c:	ac830000 	sw	v1,0(a0)
  *out_data_image_height = p_jinfo_image_height;
    2970:	aca20000 	sw	v0,0(a1)
  /*
   * Initialize output buffer
   */
  for (i = 0; i < RGB_NUM; i++)
    {
      out_data_comp_vpos[i] = 0;
    2974:	8fa20a80 	lw	v0,2688(sp)
      out_data_comp_hpos[i] = 0;
    2978:	24e40004 	addiu	a0,a3,4
  /*
   * Initialize output buffer
   */
  for (i = 0; i < RGB_NUM; i++)
    {
      out_data_comp_vpos[i] = 0;
    297c:	ac400000 	sw	zero,0(v0)
      out_data_comp_hpos[i] = 0;
    2980:	ace00000 	sw	zero,0(a3)
  /*
   * Initialize output buffer
   */
  for (i = 0; i < RGB_NUM; i++)
    {
      out_data_comp_vpos[i] = 0;
    2984:	ac400004 	sw	zero,4(v0)
      out_data_comp_hpos[i] = 0;
    2988:	ace00004 	sw	zero,4(a3)
  /*
   * Initialize output buffer
   */
  for (i = 0; i < RGB_NUM; i++)
    {
      out_data_comp_vpos[i] = 0;
    298c:	ac400008 	sw	zero,8(v0)
      out_data_comp_hpos[i] = 0;
    2990:	ace00008 	sw	zero,8(a3)
  /*
   * Initialize output buffer
   */
  for (i = 0; i < RGB_NUM; i++)
    {
      out_data_comp_vpos[i] = 0;
    2994:	24430004 	addiu	v1,v0,4
    2998:	24450008 	addiu	a1,v0,8
      out_data_comp_hpos[i] = 0;
    }


  if (p_jinfo_smp_fact == SF1_1_1)
    299c:	8f820000 	lw	v0,0(gp)
   * Initialize output buffer
   */
  for (i = 0; i < RGB_NUM; i++)
    {
      out_data_comp_vpos[i] = 0;
      out_data_comp_hpos[i] = 0;
    29a0:	24e60008 	addiu	a2,a3,8
  /*
   * Initialize output buffer
   */
  for (i = 0; i < RGB_NUM; i++)
    {
      out_data_comp_vpos[i] = 0;
    29a4:	afa30a2c 	sw	v1,2604(sp)
      out_data_comp_hpos[i] = 0;
    29a8:	afa40a30 	sw	a0,2608(sp)
  /*
   * Initialize output buffer
   */
  for (i = 0; i < RGB_NUM; i++)
    {
      out_data_comp_vpos[i] = 0;
    29ac:	afa50a34 	sw	a1,2612(sp)
      out_data_comp_hpos[i] = 0;
    }


  if (p_jinfo_smp_fact == SF1_1_1)
    29b0:	144000ec 	bnez	v0,2d64 <decode_start+0x448>
    29b4:	afa60a38 	sw	a2,2616(sp)
    {
      printf ("Decode 1:1:1 NumMCU = %d\n", p_jinfo_NumMCU);
    29b8:	8f850000 	lw	a1,0(gp)
    29bc:	3c040000 	lui	a0,0x0
    29c0:	0c000000 	jal	0 <read_byte>
    29c4:	24840000 	addiu	a0,a0,0

      /*
       * 1_1_1
       */
      while (CurrentMCU < p_jinfo_NumMCU)
    29c8:	8f820000 	lw	v0,0(gp)
    29cc:	00000000 	sll	zero,zero,0x0
    29d0:	184000d1 	blez	v0,2d18 <decode_start+0x3fc>
    29d4:	3c020000 	lui	v0,0x0
    29d8:	3c110000 	lui	s1,0x0


	  CurrentMCU += 4;
	}
    }
}
    29dc:	3c170000 	lui	s7,0x0
    29e0:	27a50420 	addiu	a1,sp,1056
    29e4:	24420000 	addiu	v0,v0,0
    29e8:	26f70000 	addiu	s7,s7,0
void
decode_start (int *out_data_image_width, int *out_data_image_height,
	      int *out_data_comp_vpos, int *out_data_comp_hpos)
{
  int i;
  int CurrentMCU = 0;
    29ec:	afa00a2c 	sw	zero,2604(sp)
    29f0:	afa50a20 	sw	a1,2592(sp)
    29f4:	27be0120 	addiu	s8,sp,288
    29f8:	27b00020 	addiu	s0,sp,32
    29fc:	26310000 	addiu	s1,s1,0
    2a00:	afa20a24 	sw	v0,2596(sp)
void
IZigzagMatrix (int *imatrix, int *omatrix)
{
  int i;

  for (i = 0; i < DCTSIZE2; i++)
    2a04:	24120100 	addiu	s2,zero,256
	{
	  *mptr = 0;
	}
      else if (*mptr > Bound)
	{
	  *mptr = Bound;
    2a08:	241300ff 	addiu	s3,zero,255

}


void
decode_start (int *out_data_image_width, int *out_data_image_height,
    2a0c:	27b40520 	addiu	s4,sp,1312
	      int *out_data_comp_vpos, int *out_data_comp_hpos)
{
    2a10:	00003021 	addu	a2,zero,zero
    2a14:	00001821 	addu	v1,zero,zero

}


void
decode_start (int *out_data_image_width, int *out_data_image_height,
    2a18:	03c6b021 	addu	s6,s8,a2
decode_block (int comp_no, int *out_buf, int *HuffBuff)
{
  int QuantBuff[DCTSIZE2];
  unsigned int *p_quant_tbl;

  DecodeHuffMCU (HuffBuff, comp_no);
    2a1c:	00602821 	addu	a1,v1,zero
    2a20:	02c02021 	addu	a0,s6,zero
    2a24:	afa30a44 	sw	v1,2628(sp)
    2a28:	0c000000 	jal	0 <read_byte>
    2a2c:	afa60a40 	sw	a2,2624(sp)

}


void
decode_start (int *out_data_image_width, int *out_data_image_height,
    2a30:	8fa70a20 	lw	a3,2592(sp)
    2a34:	8fa60a40 	lw	a2,2624(sp)
decode_block (int comp_no, int *out_buf, int *HuffBuff)
{
  int QuantBuff[DCTSIZE2];
  unsigned int *p_quant_tbl;

  DecodeHuffMCU (HuffBuff, comp_no);
    2a38:	8fa30a44 	lw	v1,2628(sp)

}


void
decode_start (int *out_data_image_width, int *out_data_image_height,
    2a3c:	afa70a28 	sw	a3,2600(sp)
    2a40:	00e6a821 	addu	s5,a3,a2
decode_block (int comp_no, int *out_buf, int *HuffBuff)
{
  int QuantBuff[DCTSIZE2];
  unsigned int *p_quant_tbl;

  DecodeHuffMCU (HuffBuff, comp_no);
    2a44:	00001021 	addu	v0,zero,zero

}


void
decode_start (int *out_data_image_width, int *out_data_image_height,
    2a48:	02222021 	addu	a0,s1,v0

  for (i = 0; i < DCTSIZE2; i++)
    
    {
      
*(omatrix++) = imatrix[zigzag_index[i]];
    2a4c:	8c850000 	lw	a1,0(a0)

}


void
decode_start (int *out_data_image_width, int *out_data_image_height,
    2a50:	02022021 	addu	a0,s0,v0

  for (i = 0; i < DCTSIZE2; i++)
    
    {
      
*(omatrix++) = imatrix[zigzag_index[i]];
    2a54:	00052880 	sll	a1,a1,0x2
    2a58:	02c52821 	addu	a1,s6,a1
    2a5c:	8ca50000 	lw	a1,0(a1)
    2a60:	24420004 	addiu	v0,v0,4
void
IZigzagMatrix (int *imatrix, int *omatrix)
{
  int i;

  for (i = 0; i < DCTSIZE2; i++)
    2a64:	1452fff8 	bne	v0,s2,2a48 <decode_start+0x12c>
    2a68:	ac850000 	sw	a1,0(a0)

}


void
decode_start (int *out_data_image_width, int *out_data_image_height,
    2a6c:	27880000 	addiu	t0,gp,0
    2a70:	01031021 	addu	v0,t0,v1
  DecodeHuffMCU (HuffBuff, comp_no);

  IZigzagMatrix (HuffBuff, QuantBuff);

  p_quant_tbl =
    &p_jinfo_quant_tbl_quantval[(int)p_jinfo_comps_info_quant_tbl_no[comp_no]][DCTSIZE2];
    2a74:	80420000 	lb	v0,0(v0)
void
IQuantize (int *matrix, int *qmatrix)
{
  int *mptr;

  for (mptr = matrix; mptr < matrix + DCTSIZE2; mptr++)
    2a78:	02002021 	addu	a0,s0,zero
  DecodeHuffMCU (HuffBuff, comp_no);

  IZigzagMatrix (HuffBuff, QuantBuff);

  p_quant_tbl =
    &p_jinfo_quant_tbl_quantval[(int)p_jinfo_comps_info_quant_tbl_no[comp_no]][DCTSIZE2];
    2a7c:	24420001 	addiu	v0,v0,1
    2a80:	00021200 	sll	v0,v0,0x8

  DecodeHuffMCU (HuffBuff, comp_no);

  IZigzagMatrix (HuffBuff, QuantBuff);

  p_quant_tbl =
    2a84:	02e21021 	addu	v0,s7,v0

}


void
decode_start (int *out_data_image_width, int *out_data_image_height,
    2a88:	24450100 	addiu	a1,v0,256
{
  int *mptr;

  for (mptr = matrix; mptr < matrix + DCTSIZE2; mptr++)
    {
      *mptr = *mptr * (*qmatrix);
    2a8c:	8c470000 	lw	a3,0(v0)
    2a90:	8c880000 	lw	t0,0(a0)
      qmatrix++;
    2a94:	24420004 	addiu	v0,v0,4
{
  int *mptr;

  for (mptr = matrix; mptr < matrix + DCTSIZE2; mptr++)
    {
      *mptr = *mptr * (*qmatrix);
    2a98:	01070018 	mult	t0,a3
    2a9c:	00003812 	mflo	a3
    2aa0:	ac870000 	sw	a3,0(a0)
void
IQuantize (int *matrix, int *qmatrix)
{
  int *mptr;

  for (mptr = matrix; mptr < matrix + DCTSIZE2; mptr++)
    2aa4:	1445fff9 	bne	v0,a1,2a8c <decode_start+0x170>
    2aa8:	24840004 	addiu	a0,a0,4

  p_quant_tbl =
    &p_jinfo_quant_tbl_quantval[(int)p_jinfo_comps_info_quant_tbl_no[comp_no]][DCTSIZE2];
  IQuantize (QuantBuff, p_quant_tbl);

  ChenIDct (QuantBuff, out_buf);
    2aac:	02002021 	addu	a0,s0,zero
    2ab0:	02a02821 	addu	a1,s5,zero
    2ab4:	afa30a44 	sw	v1,2628(sp)
    2ab8:	0c000000 	jal	0 <read_byte>
    2abc:	afa60a40 	sw	a2,2624(sp)
    2ac0:	8fa60a40 	lw	a2,2624(sp)
    2ac4:	8fa30a44 	lw	v1,2628(sp)
 */
void
PostshiftIDctMatrix (int *matrix, int shift)
{
  int *mptr;
  for (mptr = matrix; mptr < matrix + DCTSIZE2; mptr++)
    2ac8:	02a01021 	addu	v0,s5,zero

  p_quant_tbl =
    &p_jinfo_quant_tbl_quantval[(int)p_jinfo_comps_info_quant_tbl_no[comp_no]][DCTSIZE2];
  IQuantize (QuantBuff, p_quant_tbl);

  ChenIDct (QuantBuff, out_buf);
    2acc:	24040040 	addiu	a0,zero,64
PostshiftIDctMatrix (int *matrix, int shift)
{
  int *mptr;
  for (mptr = matrix; mptr < matrix + DCTSIZE2; mptr++)
    {
      *mptr += shift;
    2ad0:	8c450000 	lw	a1,0(v0)
 */
void
PostshiftIDctMatrix (int *matrix, int shift)
{
  int *mptr;
  for (mptr = matrix; mptr < matrix + DCTSIZE2; mptr++)
    2ad4:	2484ffff 	addiu	a0,a0,-1
    {
      *mptr += shift;
    2ad8:	24a50080 	addiu	a1,a1,128
    2adc:	ac450000 	sw	a1,0(v0)
 */
void
PostshiftIDctMatrix (int *matrix, int shift)
{
  int *mptr;
  for (mptr = matrix; mptr < matrix + DCTSIZE2; mptr++)
    2ae0:	1480fffb 	bnez	a0,2ad0 <decode_start+0x1b4>
    2ae4:	24420004 	addiu	v0,v0,4
    2ae8:	08000ac2 	j	2b08 <decode_start+0x1ec>
    2aec:	24020040 	addiu	v0,zero,64
    {
      if (*mptr < 0)
	{
	  *mptr = 0;
	}
      else if (*mptr > Bound)
    2af0:	14a00002 	bnez	a1,2afc <decode_start+0x1e0>
    2af4:	00000000 	sll	zero,zero,0x0
	{
	  *mptr = Bound;
    2af8:	aeb30000 	sw	s3,0(s5)
void
BoundIDctMatrix (int *matrix, int Bound)
{
  int *mptr;

  for (mptr = matrix; mptr < matrix + DCTSIZE2; mptr++)
    2afc:	2442ffff 	addiu	v0,v0,-1
    2b00:	10400009 	beqz	v0,2b28 <decode_start+0x20c>
    2b04:	26b50004 	addiu	s5,s5,4
    {
      if (*mptr < 0)
    2b08:	8ea40000 	lw	a0,0(s5)
    2b0c:	00000000 	sll	zero,zero,0x0
    2b10:	0481fff7 	bgez	a0,2af0 <decode_start+0x1d4>
    2b14:	28850100 	slti	a1,a0,256
void
BoundIDctMatrix (int *matrix, int Bound)
{
  int *mptr;

  for (mptr = matrix; mptr < matrix + DCTSIZE2; mptr++)
    2b18:	2442ffff 	addiu	v0,v0,-1
    {
      if (*mptr < 0)
	{
	  *mptr = 0;
    2b1c:	aea00000 	sw	zero,0(s5)
void
BoundIDctMatrix (int *matrix, int Bound)
{
  int *mptr;

  for (mptr = matrix; mptr < matrix + DCTSIZE2; mptr++)
    2b20:	1440fff9 	bnez	v0,2b08 <decode_start+0x1ec>
    2b24:	26b50004 	addiu	s5,s5,4
       * 1_1_1
       */
      while (CurrentMCU < p_jinfo_NumMCU)
	{

	  for (i = 0; i < NUM_COMPONENT; i++)
    2b28:	24630001 	addiu	v1,v1,1
    2b2c:	24080003 	addiu	t0,zero,3
    2b30:	1468ffb9 	bne	v1,t0,2a18 <decode_start+0xfc>
    2b34:	24c60100 	addiu	a2,a2,256
    2b38:	8fb60a28 	lw	s6,2600(sp)
    2b3c:	8fa40a24 	lw	a0,2596(sp)

  for (i = 0; i < DCTSIZE2; i++)
    {
      y = y_buf[i];
      u = u_buf[i] - 128;
      v = v_buf[i] - 128;
    2b40:	8ec30200 	lw	v1,512(s6)
  int i;

  for (i = 0; i < DCTSIZE2; i++)
    {
      y = y_buf[i];
      u = u_buf[i] - 128;
    2b44:	8ec20100 	lw	v0,256(s6)
      v = v_buf[i] - 128;
    2b48:	2463ff80 	addiu	v1,v1,-128
  int i;

  for (i = 0; i < DCTSIZE2; i++)
    {
      y = y_buf[i];
      u = u_buf[i] - 128;
    2b4c:	2442ff80 	addiu	v0,v0,-128
      v = v_buf[i] - 128;

      r = (y * 256 + v * 359 + 128) >> 8;
    2b50:	000328c0 	sll	a1,v1,0x3
    2b54:	00033140 	sll	a2,v1,0x5
    2b58:	00c53023 	subu	a2,a2,a1
      g = (y * 256 - u * 88 - v * 182 + 128) >> 8;
    2b5c:	00033880 	sll	a3,v1,0x2
    2b60:	00036900 	sll	t5,v1,0x4
      b = (y * 256 + u * 454 + 128) >> 8;
    2b64:	000240c0 	sll	t0,v0,0x3
    2b68:	00026180 	sll	t4,v0,0x6
    {
      y = y_buf[i];
      u = u_buf[i] - 128;
      v = v_buf[i] - 128;

      r = (y * 256 + v * 359 + 128) >> 8;
    2b6c:	8ec50000 	lw	a1,0(s6)
    2b70:	00064900 	sll	t1,a2,0x4
      g = (y * 256 - u * 88 - v * 182 + 128) >> 8;
    2b74:	00025080 	sll	t2,v0,0x2
    2b78:	00025900 	sll	t3,v0,0x4
    2b7c:	01a73823 	subu	a3,t5,a3
      b = (y * 256 + u * 454 + 128) >> 8;
    2b80:	01884023 	subu	t0,t4,t0
      y = y_buf[i];
      u = u_buf[i] - 128;
      v = v_buf[i] - 128;

      r = (y * 256 + v * 359 + 128) >> 8;
      g = (y * 256 - u * 88 - v * 182 + 128) >> 8;
    2b84:	00e33821 	addu	a3,a3,v1
    {
      y = y_buf[i];
      u = u_buf[i] - 128;
      v = v_buf[i] - 128;

      r = (y * 256 + v * 359 + 128) >> 8;
    2b88:	01264823 	subu	t1,t1,a2
      g = (y * 256 - u * 88 - v * 182 + 128) >> 8;
      b = (y * 256 + u * 454 + 128) >> 8;
    2b8c:	01024021 	addu	t0,t0,v0
    {
      y = y_buf[i];
      u = u_buf[i] - 128;
      v = v_buf[i] - 128;

      r = (y * 256 + v * 359 + 128) >> 8;
    2b90:	00052a00 	sll	a1,a1,0x8
      g = (y * 256 - u * 88 - v * 182 + 128) >> 8;
    2b94:	016a3023 	subu	a2,t3,t2
    {
      y = y_buf[i];
      u = u_buf[i] - 128;
      v = v_buf[i] - 128;

      r = (y * 256 + v * 359 + 128) >> 8;
    2b98:	24a50080 	addiu	a1,a1,128
    2b9c:	01231823 	subu	v1,t1,v1
      g = (y * 256 - u * 88 - v * 182 + 128) >> 8;
    2ba0:	00463023 	subu	a2,v0,a2
      b = (y * 256 + u * 454 + 128) >> 8;
    2ba4:	00084080 	sll	t0,t0,0x2
      y = y_buf[i];
      u = u_buf[i] - 128;
      v = v_buf[i] - 128;

      r = (y * 256 + v * 359 + 128) >> 8;
      g = (y * 256 - u * 88 - v * 182 + 128) >> 8;
    2ba8:	000748c0 	sll	t1,a3,0x3
    {
      y = y_buf[i];
      u = u_buf[i] - 128;
      v = v_buf[i] - 128;

      r = (y * 256 + v * 359 + 128) >> 8;
    2bac:	00a31821 	addu	v1,a1,v1
      g = (y * 256 - u * 88 - v * 182 + 128) >> 8;
      b = (y * 256 + u * 454 + 128) >> 8;
    2bb0:	01021023 	subu	v0,t0,v0
      y = y_buf[i];
      u = u_buf[i] - 128;
      v = v_buf[i] - 128;

      r = (y * 256 + v * 359 + 128) >> 8;
      g = (y * 256 - u * 88 - v * 182 + 128) >> 8;
    2bb4:	000630c0 	sll	a2,a2,0x3
    2bb8:	00e93823 	subu	a3,a3,t1
    2bbc:	00c53021 	addu	a2,a2,a1
    2bc0:	00073840 	sll	a3,a3,0x1
      b = (y * 256 + u * 454 + 128) >> 8;
    2bc4:	00021040 	sll	v0,v0,0x1
    2bc8:	00031a03 	sra	v1,v1,0x8
      y = y_buf[i];
      u = u_buf[i] - 128;
      v = v_buf[i] - 128;

      r = (y * 256 + v * 359 + 128) >> 8;
      g = (y * 256 - u * 88 - v * 182 + 128) >> 8;
    2bcc:	00c73021 	addu	a2,a2,a3
      b = (y * 256 + u * 454 + 128) >> 8;
    2bd0:	00452821 	addu	a1,v0,a1
    2bd4:	28680100 	slti	t0,v1,256
      y = y_buf[i];
      u = u_buf[i] - 128;
      v = v_buf[i] - 128;

      r = (y * 256 + v * 359 + 128) >> 8;
      g = (y * 256 - u * 88 - v * 182 + 128) >> 8;
    2bd8:	00063203 	sra	a2,a2,0x8
      b = (y * 256 + u * 454 + 128) >> 8;
    2bdc:	15000002 	bnez	t0,2be8 <decode_start+0x2cc>
    2be0:	00052a03 	sra	a1,a1,0x8
    2be4:	240300ff 	addiu	v1,zero,255
    2be8:	28c70100 	slti	a3,a2,256
    2bec:	14e00002 	bnez	a3,2bf8 <decode_start+0x2dc>
    2bf0:	28a20100 	slti	v0,a1,256
    2bf4:	240600ff 	addiu	a2,zero,255
    2bf8:	14400002 	bnez	v0,2c04 <decode_start+0x2e8>
    2bfc:	00000000 	sll	zero,zero,0x0
    2c00:	240500ff 	addiu	a1,zero,255
      if (b < 0)
	b = 0;
      else if (b > 255)
	b = 255;

      rgb_buf[p][0][i] = r;
    2c04:	04600055 	bltz	v1,2d5c <decode_start+0x440>
    2c08:	00000000 	sll	zero,zero,0x0
      rgb_buf[p][1][i] = g;
    2c0c:	04c0004e 	bltz	a2,2d48 <decode_start+0x42c>
    2c10:	ac830000 	sw	v1,0(a0)
      rgb_buf[p][2][i] = b;
    2c14:	04a0004f 	bltz	a1,2d54 <decode_start+0x438>
    2c18:	ac860100 	sw	a2,256(a0)
    2c1c:	26d60004 	addiu	s6,s6,4
    2c20:	ac850200 	sw	a1,512(a0)
{
  int r, g, b;
  int y, u, v;
  int i;

  for (i = 0; i < DCTSIZE2; i++)
    2c24:	16d4ffc6 	bne	s6,s4,2b40 <decode_start+0x224>
    2c28:	24840004 	addiu	a0,a0,4
  hoffs = *p_out_hpos * DCTSIZE;

  /*
   * Write block
   */
  WriteOneBlock (store,
    2c2c:	3c080000 	lui	t0,0x0
    2c30:	87820000 	lh	v0,0(gp)
    2c34:	87850000 	lh	a1,0(gp)
    2c38:	8fa90a80 	lw	t1,2688(sp)
    2c3c:	8fa60a84 	lw	a2,2692(sp)
    2c40:	8fa70a24 	lw	a3,2596(sp)
    2c44:	25080000 	addiu	t0,t0,0
  int voffs, hoffs;

  /*
   * Get vertical offsets
   */
  voffs = *p_out_vpos * DCTSIZE;
    2c48:	8d230000 	lw	v1,0(t1)
  hoffs = *p_out_hpos * DCTSIZE;
    2c4c:	8cd50000 	lw	s5,0(a2)
  int voffs, hoffs;

  /*
   * Get vertical offsets
   */
  voffs = *p_out_vpos * DCTSIZE;
    2c50:	000318c0 	sll	v1,v1,0x3


  /* Find vertical buffer offs. */
  for (i = voffs; i < voffs + DCTSIZE; i++)
    {
      if (i < height)
    2c54:	0065502a 	slt	t2,v1,a1
    2c58:	1140001c 	beqz	t2,2ccc <decode_start+0x3b0>
    2c5c:	24640007 	addiu	a0,v1,7

}


void
decode_start (int *out_data_image_width, int *out_data_image_height,
    2c60:	00620018 	mult	v1,v0

  /*
   * Get vertical offsets
   */
  voffs = *p_out_vpos * DCTSIZE;
  hoffs = *p_out_hpos * DCTSIZE;
    2c64:	0015a8c0 	sll	s5,s5,0x3


  /* Find vertical buffer offs. */
  for (i = voffs; i < voffs + DCTSIZE; i++)
    {
      if (i < height)
    2c68:	00e05821 	addu	t3,a3,zero

  /*
   * Get vertical offsets
   */
  voffs = *p_out_vpos * DCTSIZE;
  hoffs = *p_out_hpos * DCTSIZE;
    2c6c:	26b80007 	addiu	t8,s5,7
    2c70:	02a2b02a 	slt	s6,s5,v0

}


void
decode_start (int *out_data_image_width, int *out_data_image_height,
    2c74:	0000c812 	mflo	t9
    2c78:	0335c821 	addu	t9,t9,s5
    2c7c:	0119c821 	addu	t9,t0,t9
	{
	  int diff;
	  diff = width * i;
	  for (e = hoffs; e < hoffs + DCTSIZE; e++)
	    {
	      if (e < width)
    2c80:	12c0000c 	beqz	s6,2cb4 <decode_start+0x398>
    2c84:	02a05021 	addu	t2,s5,zero
    2c88:	08000b26 	j	2c98 <decode_start+0x37c>
    2c8c:	03206021 	addu	t4,t9,zero
    2c90:	11e00008 	beqz	t7,2cb4 <decode_start+0x398>
    2c94:	258c0001 	addiu	t4,t4,1
		{
		  out_buf[diff + e] = (unsigned char) (*(store++));
    2c98:	8d6e0000 	lw	t6,0(t3)
    {
      if (i < height)
	{
	  int diff;
	  diff = width * i;
	  for (e = hoffs; e < hoffs + DCTSIZE; e++)
    2c9c:	254a0001 	addiu	t2,t2,1
    2ca0:	030a682a 	slt	t5,t8,t2
	    {
	      if (e < width)
    2ca4:	0142782a 	slt	t7,t2,v0
		{
		  out_buf[diff + e] = (unsigned char) (*(store++));
    2ca8:	a18e0000 	sb	t6,0(t4)
    {
      if (i < height)
	{
	  int diff;
	  diff = width * i;
	  for (e = hoffs; e < hoffs + DCTSIZE; e++)
    2cac:	11a0fff8 	beqz	t5,2c90 <decode_start+0x374>
    2cb0:	256b0004 	addiu	t3,t3,4
{
  int i, e;


  /* Find vertical buffer offs. */
  for (i = voffs; i < voffs + DCTSIZE; i++)
    2cb4:	24630001 	addiu	v1,v1,1
    2cb8:	0083502a 	slt	t2,a0,v1
    2cbc:	15400003 	bnez	t2,2ccc <decode_start+0x3b0>
    2cc0:	0065502a 	slt	t2,v1,a1
    {
      if (i < height)
    2cc4:	1540ffee 	bnez	t2,2c80 <decode_start+0x364>
    2cc8:	0322c821 	addu	t9,t9,v0
   *  Add positions
   */
  *p_out_hpos++;
  *p_out_vpos++;

  if (*p_out_hpos < p_jinfo_MCUWidth)
    2ccc:	8cc40004 	lw	a0,4(a2)
    2cd0:	8f830000 	lw	v1,0(gp)
    2cd4:	00000000 	sll	zero,zero,0x0
    2cd8:	0083182a 	slt	v1,a0,v1
    2cdc:	14600002 	bnez	v1,2ce8 <decode_start+0x3cc>
    2ce0:	3c030000 	lui	v1,0x0
    {
      *p_out_vpos--;
    }
  else
    {
      *p_out_hpos = 0;		/* If at end of image (width) */
    2ce4:	acc00004 	sw	zero,4(a2)
    2ce8:	24e70100 	addiu	a3,a3,256

	  YuvToRgb (0, IDCTBuff[0], IDCTBuff[1], IDCTBuff[2]);
	  /*
	   * Write
	   */
	  for (i = 0; i < RGB_NUM; i++)
    2cec:	24630300 	addiu	v1,v1,768
    {
      *p_out_vpos--;
    }
  else
    {
      *p_out_hpos = 0;		/* If at end of image (width) */
    2cf0:	25290004 	addiu	t1,t1,4
    2cf4:	24c60004 	addiu	a2,a2,4

	  YuvToRgb (0, IDCTBuff[0], IDCTBuff[1], IDCTBuff[2]);
	  /*
	   * Write
	   */
	  for (i = 0; i < RGB_NUM; i++)
    2cf8:	14e3ffd3 	bne	a3,v1,2c48 <decode_start+0x32c>
    2cfc:	250814be 	addiu	t0,t0,5310
	    {
	      WriteBlock (&rgb_buf[0][i][0],
			  &out_data_comp_vpos[i],
			  &out_data_comp_hpos[i], &OutData_comp_buf[i][0]);
	    }
	  CurrentMCU++;
    2d00:	8fa40a2c 	lw	a0,2604(sp)
      printf ("Decode 1:1:1 NumMCU = %d\n", p_jinfo_NumMCU);

      /*
       * 1_1_1
       */
      while (CurrentMCU < p_jinfo_NumMCU)
    2d04:	8f820000 	lw	v0,0(gp)
	    {
	      WriteBlock (&rgb_buf[0][i][0],
			  &out_data_comp_vpos[i],
			  &out_data_comp_hpos[i], &OutData_comp_buf[i][0]);
	    }
	  CurrentMCU++;
    2d08:	24840001 	addiu	a0,a0,1
      printf ("Decode 1:1:1 NumMCU = %d\n", p_jinfo_NumMCU);

      /*
       * 1_1_1
       */
      while (CurrentMCU < p_jinfo_NumMCU)
    2d0c:	0082102a 	slt	v0,a0,v0
    2d10:	1440ff3f 	bnez	v0,2a10 <decode_start+0xf4>
    2d14:	afa40a2c 	sw	a0,2604(sp)


	  CurrentMCU += 4;
	}
    }
}
    2d18:	8fbf0a74 	lw	ra,2676(sp)
    2d1c:	8fbe0a70 	lw	s8,2672(sp)
    2d20:	8fb70a6c 	lw	s7,2668(sp)
    2d24:	8fb60a68 	lw	s6,2664(sp)
    2d28:	8fb50a64 	lw	s5,2660(sp)
    2d2c:	8fb40a60 	lw	s4,2656(sp)
    2d30:	8fb30a5c 	lw	s3,2652(sp)
    2d34:	8fb20a58 	lw	s2,2648(sp)
    2d38:	8fb10a54 	lw	s1,2644(sp)
    2d3c:	8fb00a50 	lw	s0,2640(sp)
    2d40:	03e00008 	jr	ra
    2d44:	27bd0a78 	addiu	sp,sp,2680
	b = 0;
      else if (b > 255)
	b = 255;

      rgb_buf[p][0][i] = r;
      rgb_buf[p][1][i] = g;
    2d48:	00003021 	addu	a2,zero,zero
      rgb_buf[p][2][i] = b;
    2d4c:	04a1ffb3 	bgez	a1,2c1c <decode_start+0x300>
    2d50:	ac860100 	sw	a2,256(a0)
    2d54:	08000b07 	j	2c1c <decode_start+0x300>
    2d58:	00002821 	addu	a1,zero,zero
      if (b < 0)
	b = 0;
      else if (b > 255)
	b = 255;

      rgb_buf[p][0][i] = r;
    2d5c:	08000b03 	j	2c0c <decode_start+0x2f0>
    2d60:	00001821 	addu	v1,zero,zero
	}

    }
  else
    {
      printf ("Decode 4:1:1 NumMCU = %d\n", p_jinfo_NumMCU);
    2d64:	8f850000 	lw	a1,0(gp)
    2d68:	3c040000 	lui	a0,0x0
    2d6c:	0c000000 	jal	0 <read_byte>
    2d70:	24840000 	addiu	a0,a0,0
      /*
       * 4_1_1
       */
      while (CurrentMCU < p_jinfo_NumMCU)
    2d74:	8f820000 	lw	v0,0(gp)
    2d78:	00000000 	sll	zero,zero,0x0
    2d7c:	1840ffe6 	blez	v0,2d18 <decode_start+0x3fc>
    2d80:	3c020000 	lui	v0,0x0


	  CurrentMCU += 4;
	}
    }
}
    2d84:	24420000 	addiu	v0,v0,0
    2d88:	3c110000 	lui	s1,0x0
      while (CurrentMCU < p_jinfo_NumMCU)
	{

	  for (i = 0; i < NUM_COMPONENT; i++)
	    {
	      decode_block (i, IDCTBuff[i], HuffBuff[i]);
    2d8c:	27a60420 	addiu	a2,sp,1056


	  CurrentMCU += 4;
	}
    }
}
    2d90:	27a70820 	addiu	a3,sp,2080
    2d94:	afa20a24 	sw	v0,2596(sp)
      while (CurrentMCU < p_jinfo_NumMCU)
	{

	  for (i = 0; i < NUM_COMPONENT; i++)
	    {
	      decode_block (i, IDCTBuff[i], HuffBuff[i]);
    2d98:	27b30120 	addiu	s3,sp,288
    2d9c:	afa60a20 	sw	a2,2592(sp)


	  CurrentMCU += 4;
	}
    }
}
    2da0:	afa70a48 	sw	a3,2632(sp)
void
decode_start (int *out_data_image_width, int *out_data_image_height,
	      int *out_data_comp_vpos, int *out_data_comp_hpos)
{
  int i;
  int CurrentMCU = 0;
    2da4:	afa00a28 	sw	zero,2600(sp)
    2da8:	27b00020 	addiu	s0,sp,32
    2dac:	26310000 	addiu	s1,s1,0
    2db0:	27a20220 	addiu	v0,sp,544
    2db4:	27be0320 	addiu	s8,sp,800
void
IZigzagMatrix (int *imatrix, int *omatrix)
{
  int i;

  for (i = 0; i < DCTSIZE2; i++)
    2db8:	24120100 	addiu	s2,zero,256
	{
	  *mptr = 0;
	}
      else if (*mptr > Bound)
	{
	  *mptr = Bound;
    2dbc:	241500ff 	addiu	s5,zero,255

}


void
decode_start (int *out_data_image_width, int *out_data_image_height,
    2dc0:	27b70920 	addiu	s7,sp,2336
    2dc4:	27b60a20 	addiu	s6,sp,2592
    2dc8:	27b40520 	addiu	s4,sp,1312
    2dcc:	8fa60a20 	lw	a2,2592(sp)
    2dd0:	02201821 	addu	v1,s1,zero
    2dd4:	02008821 	addu	s1,s0,zero
decode_block (int comp_no, int *out_buf, int *HuffBuff)
{
  int QuantBuff[DCTSIZE2];
  unsigned int *p_quant_tbl;

  DecodeHuffMCU (HuffBuff, comp_no);
    2dd8:	02602021 	addu	a0,s3,zero
    2ddc:	00002821 	addu	a1,zero,zero
    2de0:	afa20a3c 	sw	v0,2620(sp)
    2de4:	afa30a44 	sw	v1,2628(sp)
    2de8:	0c000000 	jal	0 <read_byte>
    2dec:	afa60a40 	sw	a2,2624(sp)
    {
      printf ("Decode 4:1:1 NumMCU = %d\n", p_jinfo_NumMCU);
      /*
       * 4_1_1
       */
      while (CurrentMCU < p_jinfo_NumMCU)
    2df0:	8fa60a40 	lw	a2,2624(sp)
decode_block (int comp_no, int *out_buf, int *HuffBuff)
{
  int QuantBuff[DCTSIZE2];
  unsigned int *p_quant_tbl;

  DecodeHuffMCU (HuffBuff, comp_no);
    2df4:	8fa30a44 	lw	v1,2628(sp)
    2df8:	8fa20a3c 	lw	v0,2620(sp)
    {
      printf ("Decode 4:1:1 NumMCU = %d\n", p_jinfo_NumMCU);
      /*
       * 4_1_1
       */
      while (CurrentMCU < p_jinfo_NumMCU)
    2dfc:	00c08021 	addu	s0,a2,zero
decode_block (int comp_no, int *out_buf, int *HuffBuff)
{
  int QuantBuff[DCTSIZE2];
  unsigned int *p_quant_tbl;

  DecodeHuffMCU (HuffBuff, comp_no);
    2e00:	00002021 	addu	a0,zero,zero

}


void
decode_start (int *out_data_image_width, int *out_data_image_height,
    2e04:	00642821 	addu	a1,v1,a0

  for (i = 0; i < DCTSIZE2; i++)
    
    {
      
*(omatrix++) = imatrix[zigzag_index[i]];
    2e08:	8ca70000 	lw	a3,0(a1)

}


void
decode_start (int *out_data_image_width, int *out_data_image_height,
    2e0c:	02242821 	addu	a1,s1,a0

  for (i = 0; i < DCTSIZE2; i++)
    
    {
      
*(omatrix++) = imatrix[zigzag_index[i]];
    2e10:	00073880 	sll	a3,a3,0x2
    2e14:	02673821 	addu	a3,s3,a3
    2e18:	8ce70000 	lw	a3,0(a3)
    2e1c:	24840004 	addiu	a0,a0,4
void
IZigzagMatrix (int *imatrix, int *omatrix)
{
  int i;

  for (i = 0; i < DCTSIZE2; i++)
    2e20:	1492fff8 	bne	a0,s2,2e04 <decode_start+0x4e8>
    2e24:	aca70000 	sw	a3,0(a1)
  DecodeHuffMCU (HuffBuff, comp_no);

  IZigzagMatrix (HuffBuff, QuantBuff);

  p_quant_tbl =
    &p_jinfo_quant_tbl_quantval[(int)p_jinfo_comps_info_quant_tbl_no[comp_no]][DCTSIZE2];
    2e28:	83840000 	lb	a0,0(gp)

  DecodeHuffMCU (HuffBuff, comp_no);

  IZigzagMatrix (HuffBuff, QuantBuff);

  p_quant_tbl =
    2e2c:	3c070000 	lui	a3,0x0
    &p_jinfo_quant_tbl_quantval[(int)p_jinfo_comps_info_quant_tbl_no[comp_no]][DCTSIZE2];
    2e30:	24840001 	addiu	a0,a0,1

  DecodeHuffMCU (HuffBuff, comp_no);

  IZigzagMatrix (HuffBuff, QuantBuff);

  p_quant_tbl =
    2e34:	24e70000 	addiu	a3,a3,0
    &p_jinfo_quant_tbl_quantval[(int)p_jinfo_comps_info_quant_tbl_no[comp_no]][DCTSIZE2];
    2e38:	00042200 	sll	a0,a0,0x8

  DecodeHuffMCU (HuffBuff, comp_no);

  IZigzagMatrix (HuffBuff, QuantBuff);

  p_quant_tbl =
    2e3c:	00e42021 	addu	a0,a3,a0
void
IQuantize (int *matrix, int *qmatrix)
{
  int *mptr;

  for (mptr = matrix; mptr < matrix + DCTSIZE2; mptr++)
    2e40:	02202821 	addu	a1,s1,zero

}


void
decode_start (int *out_data_image_width, int *out_data_image_height,
    2e44:	24870100 	addiu	a3,a0,256
{
  int *mptr;

  for (mptr = matrix; mptr < matrix + DCTSIZE2; mptr++)
    {
      *mptr = *mptr * (*qmatrix);
    2e48:	8c880000 	lw	t0,0(a0)
    2e4c:	8ca90000 	lw	t1,0(a1)
      qmatrix++;
    2e50:	24840004 	addiu	a0,a0,4
{
  int *mptr;

  for (mptr = matrix; mptr < matrix + DCTSIZE2; mptr++)
    {
      *mptr = *mptr * (*qmatrix);
    2e54:	01280018 	mult	t1,t0
    2e58:	00004012 	mflo	t0
    2e5c:	aca80000 	sw	t0,0(a1)
void
IQuantize (int *matrix, int *qmatrix)
{
  int *mptr;

  for (mptr = matrix; mptr < matrix + DCTSIZE2; mptr++)
    2e60:	1487fff9 	bne	a0,a3,2e48 <decode_start+0x52c>
    2e64:	24a50004 	addiu	a1,a1,4

  p_quant_tbl =
    &p_jinfo_quant_tbl_quantval[(int)p_jinfo_comps_info_quant_tbl_no[comp_no]][DCTSIZE2];
  IQuantize (QuantBuff, p_quant_tbl);

  ChenIDct (QuantBuff, out_buf);
    2e68:	00c02821 	addu	a1,a2,zero
    2e6c:	02202021 	addu	a0,s1,zero
    2e70:	afa20a3c 	sw	v0,2620(sp)
    2e74:	afa30a44 	sw	v1,2628(sp)
    2e78:	0c000000 	jal	0 <read_byte>
    2e7c:	afa60a40 	sw	a2,2624(sp)
 */
void
PostshiftIDctMatrix (int *matrix, int shift)
{
  int *mptr;
  for (mptr = matrix; mptr < matrix + DCTSIZE2; mptr++)
    2e80:	8fa60a40 	lw	a2,2624(sp)

  p_quant_tbl =
    &p_jinfo_quant_tbl_quantval[(int)p_jinfo_comps_info_quant_tbl_no[comp_no]][DCTSIZE2];
  IQuantize (QuantBuff, p_quant_tbl);

  ChenIDct (QuantBuff, out_buf);
    2e84:	8fa30a44 	lw	v1,2628(sp)
    2e88:	8fa20a3c 	lw	v0,2620(sp)
 */
void
PostshiftIDctMatrix (int *matrix, int shift)
{
  int *mptr;
  for (mptr = matrix; mptr < matrix + DCTSIZE2; mptr++)
    2e8c:	00c02021 	addu	a0,a2,zero

  p_quant_tbl =
    &p_jinfo_quant_tbl_quantval[(int)p_jinfo_comps_info_quant_tbl_no[comp_no]][DCTSIZE2];
  IQuantize (QuantBuff, p_quant_tbl);

  ChenIDct (QuantBuff, out_buf);
    2e90:	24050040 	addiu	a1,zero,64
PostshiftIDctMatrix (int *matrix, int shift)
{
  int *mptr;
  for (mptr = matrix; mptr < matrix + DCTSIZE2; mptr++)
    {
      *mptr += shift;
    2e94:	8c870000 	lw	a3,0(a0)
 */
void
PostshiftIDctMatrix (int *matrix, int shift)
{
  int *mptr;
  for (mptr = matrix; mptr < matrix + DCTSIZE2; mptr++)
    2e98:	24a5ffff 	addiu	a1,a1,-1
    {
      *mptr += shift;
    2e9c:	24e70080 	addiu	a3,a3,128
    2ea0:	ac870000 	sw	a3,0(a0)
 */
void
PostshiftIDctMatrix (int *matrix, int shift)
{
  int *mptr;
  for (mptr = matrix; mptr < matrix + DCTSIZE2; mptr++)
    2ea4:	14a0fffb 	bnez	a1,2e94 <decode_start+0x578>
    2ea8:	24840004 	addiu	a0,a0,4
    2eac:	08000bb3 	j	2ecc <decode_start+0x5b0>
    2eb0:	24040040 	addiu	a0,zero,64
    {
      if (*mptr < 0)
	{
	  *mptr = 0;
	}
      else if (*mptr > Bound)
    2eb4:	14e00002 	bnez	a3,2ec0 <decode_start+0x5a4>
    2eb8:	00000000 	sll	zero,zero,0x0
	{
	  *mptr = Bound;
    2ebc:	ae150000 	sw	s5,0(s0)
void
BoundIDctMatrix (int *matrix, int Bound)
{
  int *mptr;

  for (mptr = matrix; mptr < matrix + DCTSIZE2; mptr++)
    2ec0:	2484ffff 	addiu	a0,a0,-1
    2ec4:	10800009 	beqz	a0,2eec <decode_start+0x5d0>
    2ec8:	26100004 	addiu	s0,s0,4
    {
      if (*mptr < 0)
    2ecc:	8e050000 	lw	a1,0(s0)
    2ed0:	00000000 	sll	zero,zero,0x0
    2ed4:	04a1fff7 	bgez	a1,2eb4 <decode_start+0x598>
    2ed8:	28a70100 	slti	a3,a1,256
void
BoundIDctMatrix (int *matrix, int Bound)
{
  int *mptr;

  for (mptr = matrix; mptr < matrix + DCTSIZE2; mptr++)
    2edc:	2484ffff 	addiu	a0,a0,-1
    {
      if (*mptr < 0)
	{
	  *mptr = 0;
    2ee0:	ae000000 	sw	zero,0(s0)
void
BoundIDctMatrix (int *matrix, int Bound)
{
  int *mptr;

  for (mptr = matrix; mptr < matrix + DCTSIZE2; mptr++)
    2ee4:	1480fff9 	bnez	a0,2ecc <decode_start+0x5b0>
    2ee8:	26100004 	addiu	s0,s0,4
	  /*
	   * Decode Y element
	   * Decoding Y, U and V elements should be sequentially conducted for the use of Huffman table
	   */

	  for (i = 0; i < 4; i++)
    2eec:	8fa40a48 	lw	a0,2632(sp)
void
BoundIDctMatrix (int *matrix, int Bound)
{
  int *mptr;

  for (mptr = matrix; mptr < matrix + DCTSIZE2; mptr++)
    2ef0:	24c60100 	addiu	a2,a2,256
	  /*
	   * Decode Y element
	   * Decoding Y, U and V elements should be sequentially conducted for the use of Huffman table
	   */

	  for (i = 0; i < 4; i++)
    2ef4:	1486ffb9 	bne	a0,a2,2ddc <decode_start+0x4c0>
    2ef8:	02602021 	addu	a0,s3,zero
decode_block (int comp_no, int *out_buf, int *HuffBuff)
{
  int QuantBuff[DCTSIZE2];
  unsigned int *p_quant_tbl;

  DecodeHuffMCU (HuffBuff, comp_no);
    2efc:	00402021 	addu	a0,v0,zero
    2f00:	24050001 	addiu	a1,zero,1
    2f04:	afa20a3c 	sw	v0,2620(sp)
    2f08:	02208021 	addu	s0,s1,zero
    2f0c:	0c000000 	jal	0 <read_byte>
    2f10:	00608821 	addu	s1,v1,zero
    2f14:	8fa20a3c 	lw	v0,2620(sp)
    2f18:	00001821 	addu	v1,zero,zero

}


void
decode_start (int *out_data_image_width, int *out_data_image_height,
    2f1c:	02232021 	addu	a0,s1,v1

  for (i = 0; i < DCTSIZE2; i++)
    
    {
      
*(omatrix++) = imatrix[zigzag_index[i]];
    2f20:	8c850000 	lw	a1,0(a0)

}


void
decode_start (int *out_data_image_width, int *out_data_image_height,
    2f24:	02032021 	addu	a0,s0,v1

  for (i = 0; i < DCTSIZE2; i++)
    
    {
      
*(omatrix++) = imatrix[zigzag_index[i]];
    2f28:	00052880 	sll	a1,a1,0x2
    2f2c:	00452821 	addu	a1,v0,a1
    2f30:	8ca50000 	lw	a1,0(a1)
    2f34:	24630004 	addiu	v1,v1,4
void
IZigzagMatrix (int *imatrix, int *omatrix)
{
  int i;

  for (i = 0; i < DCTSIZE2; i++)
    2f38:	1472fff8 	bne	v1,s2,2f1c <decode_start+0x600>
    2f3c:	ac850000 	sw	a1,0(a0)
  DecodeHuffMCU (HuffBuff, comp_no);

  IZigzagMatrix (HuffBuff, QuantBuff);

  p_quant_tbl =
    &p_jinfo_quant_tbl_quantval[(int)p_jinfo_comps_info_quant_tbl_no[comp_no]][DCTSIZE2];
    2f40:	83830001 	lb	v1,1(gp)

  DecodeHuffMCU (HuffBuff, comp_no);

  IZigzagMatrix (HuffBuff, QuantBuff);

  p_quant_tbl =
    2f44:	3c050000 	lui	a1,0x0
    &p_jinfo_quant_tbl_quantval[(int)p_jinfo_comps_info_quant_tbl_no[comp_no]][DCTSIZE2];
    2f48:	24630001 	addiu	v1,v1,1

  DecodeHuffMCU (HuffBuff, comp_no);

  IZigzagMatrix (HuffBuff, QuantBuff);

  p_quant_tbl =
    2f4c:	24a50000 	addiu	a1,a1,0
    &p_jinfo_quant_tbl_quantval[(int)p_jinfo_comps_info_quant_tbl_no[comp_no]][DCTSIZE2];
    2f50:	00031a00 	sll	v1,v1,0x8

  DecodeHuffMCU (HuffBuff, comp_no);

  IZigzagMatrix (HuffBuff, QuantBuff);

  p_quant_tbl =
    2f54:	00a31821 	addu	v1,a1,v1
void
IQuantize (int *matrix, int *qmatrix)
{
  int *mptr;

  for (mptr = matrix; mptr < matrix + DCTSIZE2; mptr++)
    2f58:	02002021 	addu	a0,s0,zero

}


void
decode_start (int *out_data_image_width, int *out_data_image_height,
    2f5c:	24650100 	addiu	a1,v1,256
{
  int *mptr;

  for (mptr = matrix; mptr < matrix + DCTSIZE2; mptr++)
    {
      *mptr = *mptr * (*qmatrix);
    2f60:	8c660000 	lw	a2,0(v1)
    2f64:	8c870000 	lw	a3,0(a0)
      qmatrix++;
    2f68:	24630004 	addiu	v1,v1,4
{
  int *mptr;

  for (mptr = matrix; mptr < matrix + DCTSIZE2; mptr++)
    {
      *mptr = *mptr * (*qmatrix);
    2f6c:	00e60018 	mult	a3,a2
    2f70:	00003012 	mflo	a2
    2f74:	ac860000 	sw	a2,0(a0)
void
IQuantize (int *matrix, int *qmatrix)
{
  int *mptr;

  for (mptr = matrix; mptr < matrix + DCTSIZE2; mptr++)
    2f78:	1465fff9 	bne	v1,a1,2f60 <decode_start+0x644>
    2f7c:	24840004 	addiu	a0,a0,4

  p_quant_tbl =
    &p_jinfo_quant_tbl_quantval[(int)p_jinfo_comps_info_quant_tbl_no[comp_no]][DCTSIZE2];
  IQuantize (QuantBuff, p_quant_tbl);

  ChenIDct (QuantBuff, out_buf);
    2f80:	02002021 	addu	a0,s0,zero
    2f84:	27a50820 	addiu	a1,sp,2080
    2f88:	0c000000 	jal	0 <read_byte>
    2f8c:	afa20a3c 	sw	v0,2620(sp)
 */
void
PostshiftIDctMatrix (int *matrix, int shift)
{
  int *mptr;
  for (mptr = matrix; mptr < matrix + DCTSIZE2; mptr++)
    2f90:	8fa20a3c 	lw	v0,2620(sp)
    2f94:	27a30820 	addiu	v1,sp,2080
    {
      *mptr += shift;
    2f98:	8c640000 	lw	a0,0(v1)
    2f9c:	00000000 	sll	zero,zero,0x0
    2fa0:	24840080 	addiu	a0,a0,128
    2fa4:	ac640000 	sw	a0,0(v1)
 */
void
PostshiftIDctMatrix (int *matrix, int shift)
{
  int *mptr;
  for (mptr = matrix; mptr < matrix + DCTSIZE2; mptr++)
    2fa8:	24630004 	addiu	v1,v1,4
    2fac:	1477fffa 	bne	v1,s7,2f98 <decode_start+0x67c>
    2fb0:	00000000 	sll	zero,zero,0x0
    2fb4:	08000bf5 	j	2fd4 <decode_start+0x6b8>
    2fb8:	27a30820 	addiu	v1,sp,2080
    {
      if (*mptr < 0)
	{
	  *mptr = 0;
	}
      else if (*mptr > Bound)
    2fbc:	14a00002 	bnez	a1,2fc8 <decode_start+0x6ac>
    2fc0:	00000000 	sll	zero,zero,0x0
	{
	  *mptr = Bound;
    2fc4:	ac750000 	sw	s5,0(v1)
void
BoundIDctMatrix (int *matrix, int Bound)
{
  int *mptr;

  for (mptr = matrix; mptr < matrix + DCTSIZE2; mptr++)
    2fc8:	24630004 	addiu	v1,v1,4
    2fcc:	10770009 	beq	v1,s7,2ff4 <decode_start+0x6d8>
    2fd0:	03c02021 	addu	a0,s8,zero
    {
      if (*mptr < 0)
    2fd4:	8c640000 	lw	a0,0(v1)
    2fd8:	00000000 	sll	zero,zero,0x0
    2fdc:	0481fff7 	bgez	a0,2fbc <decode_start+0x6a0>
    2fe0:	28850100 	slti	a1,a0,256
	{
	  *mptr = 0;
    2fe4:	ac600000 	sw	zero,0(v1)
void
BoundIDctMatrix (int *matrix, int Bound)
{
  int *mptr;

  for (mptr = matrix; mptr < matrix + DCTSIZE2; mptr++)
    2fe8:	24630004 	addiu	v1,v1,4
    2fec:	1477fff9 	bne	v1,s7,2fd4 <decode_start+0x6b8>
    2ff0:	03c02021 	addu	a0,s8,zero
decode_block (int comp_no, int *out_buf, int *HuffBuff)
{
  int QuantBuff[DCTSIZE2];
  unsigned int *p_quant_tbl;

  DecodeHuffMCU (HuffBuff, comp_no);
    2ff4:	24050002 	addiu	a1,zero,2
    2ff8:	0c000000 	jal	0 <read_byte>
    2ffc:	afa20a3c 	sw	v0,2620(sp)
    3000:	8fa20a3c 	lw	v0,2620(sp)

	  /* Decode U */
	  decode_block (1, IDCTBuff[4], HuffBuff[1]);

	  /* Decode V */
	  decode_block (2, IDCTBuff[5], HuffBuff[2]);
    3004:	27a30920 	addiu	v1,sp,2336
decode_block (int comp_no, int *out_buf, int *HuffBuff)
{
  int QuantBuff[DCTSIZE2];
  unsigned int *p_quant_tbl;

  DecodeHuffMCU (HuffBuff, comp_no);
    3008:	00002021 	addu	a0,zero,zero

}


void
decode_start (int *out_data_image_width, int *out_data_image_height,
    300c:	02242821 	addu	a1,s1,a0

  for (i = 0; i < DCTSIZE2; i++)
    
    {
      
*(omatrix++) = imatrix[zigzag_index[i]];
    3010:	8ca60000 	lw	a2,0(a1)

}


void
decode_start (int *out_data_image_width, int *out_data_image_height,
    3014:	02042821 	addu	a1,s0,a0

  for (i = 0; i < DCTSIZE2; i++)
    
    {
      
