
median.o:     file format elf32-bigmips


Disassembly of section .text:

00000000 <main>:
                                                        {31, 32, 33, 34, 35, 36, 37, 38, 39, 40, 41, 43, 43, 44, 45,},
                                                        {41, 42, 43, 44, 45, 46, 47, 48, 49, 50, 51, 52, 53, 54, 55,},
                                                        {41, 42, 43, 44, 45, 46, 47, 48, 49, 50, 51, 52, 53, 54, 55,},
                                                        {41, 42, 43, 44, 45, 46, 47, 48, 49, 50, 51, 52, 53, 54, 55}}; // 24

int main () {
   0:	27bdfc40 	addiu	sp,sp,-960
   4:	afbe03bc 	sw	s8,956(sp)
   8:	03a0f021 	addu	s8,sp,zero
   
    int main_result = 0; 
   c:	afc00000 	sw	zero,0(s8)
    int min, temp;
    int temparray[FILTERSIZE];
    int image_o[IMAGE_XSIZE][IMAGE_YSIZE];
    

    for (i = 0; i < IMAGE_XSIZE-FILTERSIZE; i++){       // traverse image from origin till end of image minus the filter width 
  10:	afc00004 	sw	zero,4(s8)
  14:	080000be 	j	2f8 <main+0x2f8>
  18:	00000000 	sll	zero,zero,0x0
        for (j = 0; j < IMAGE_YSIZE-FILTERSIZE; j++) {
  1c:	afc00008 	sw	zero,8(s8)
  20:	080000b5 	j	2d4 <main+0x2d4>
  24:	00000000 	sll	zero,zero,0x0
            n = 0;
  28:	afc0001c 	sw	zero,28(s8)
            for (x = 0; x < FILTERSIZE; x++) {          // at each point of the pixel, store a row of x values into an array
  2c:	afc0000c 	sw	zero,12(s8)
  30:	08000038 	j	e0 <main+0xe0>
  34:	00000000 	sll	zero,zero,0x0
                for (y = 0; y < FILTERSIZE; y++) {
  38:	afc00010 	sw	zero,16(s8)
  3c:	0800002f 	j	bc <main+0xbc>
  40:	00000000 	sll	zero,zero,0x0
                    temparray[n] = image_i[i+x][j+y]; 
  44:	8fc30004 	lw	v1,4(s8)
  48:	8fc2000c 	lw	v0,12(s8)
  4c:	00000000 	sll	zero,zero,0x0
  50:	00621821 	addu	v1,v1,v0
  54:	8fc40008 	lw	a0,8(s8)
  58:	8fc20010 	lw	v0,16(s8)
  5c:	00000000 	sll	zero,zero,0x0
  60:	00822821 	addu	a1,a0,v0
  64:	3c040000 	lui	a0,0x0
  68:	00601021 	addu	v0,v1,zero
  6c:	00021100 	sll	v0,v0,0x4
  70:	00431023 	subu	v0,v0,v1
  74:	00451021 	addu	v0,v0,a1
  78:	00021880 	sll	v1,v0,0x2
  7c:	24820000 	addiu	v0,a0,0
  80:	00621021 	addu	v0,v1,v0
  84:	8c430000 	lw	v1,0(v0)
  88:	8fc2001c 	lw	v0,28(s8)
  8c:	00000000 	sll	zero,zero,0x0
  90:	00021080 	sll	v0,v0,0x2
  94:	03c21021 	addu	v0,s8,v0
  98:	ac430028 	sw	v1,40(v0)
                    n++;
  9c:	8fc2001c 	lw	v0,28(s8)
  a0:	00000000 	sll	zero,zero,0x0
  a4:	24420001 	addiu	v0,v0,1
  a8:	afc2001c 	sw	v0,28(s8)

    for (i = 0; i < IMAGE_XSIZE-FILTERSIZE; i++){       // traverse image from origin till end of image minus the filter width 
        for (j = 0; j < IMAGE_YSIZE-FILTERSIZE; j++) {
            n = 0;
            for (x = 0; x < FILTERSIZE; x++) {          // at each point of the pixel, store a row of x values into an array
                for (y = 0; y < FILTERSIZE; y++) {
  ac:	8fc20010 	lw	v0,16(s8)
  b0:	00000000 	sll	zero,zero,0x0
  b4:	24420001 	addiu	v0,v0,1
  b8:	afc20010 	sw	v0,16(s8)
  bc:	8fc20010 	lw	v0,16(s8)
  c0:	00000000 	sll	zero,zero,0x0
  c4:	28420003 	slti	v0,v0,3
  c8:	1440ffde 	bnez	v0,44 <main+0x44>
  cc:	00000000 	sll	zero,zero,0x0
    

    for (i = 0; i < IMAGE_XSIZE-FILTERSIZE; i++){       // traverse image from origin till end of image minus the filter width 
        for (j = 0; j < IMAGE_YSIZE-FILTERSIZE; j++) {
            n = 0;
            for (x = 0; x < FILTERSIZE; x++) {          // at each point of the pixel, store a row of x values into an array
  d0:	8fc2000c 	lw	v0,12(s8)
  d4:	00000000 	sll	zero,zero,0x0
  d8:	24420001 	addiu	v0,v0,1
  dc:	afc2000c 	sw	v0,12(s8)
  e0:	8fc2000c 	lw	v0,12(s8)
  e4:	00000000 	sll	zero,zero,0x0
  e8:	28420003 	slti	v0,v0,3
  ec:	1440ffd2 	bnez	v0,38 <main+0x38>
  f0:	00000000 	sll	zero,zero,0x0
                    n++;
                }
            }

            /*find median -- kernel to process the array*/
            for (i_med = 0; i_med < 4; i_med++) {
  f4:	afc00014 	sw	zero,20(s8)
  f8:	0800007c 	j	1f0 <main+0x1f0>
  fc:	00000000 	sll	zero,zero,0x0
                min = temparray[i_med];
 100:	8fc20014 	lw	v0,20(s8)
 104:	00000000 	sll	zero,zero,0x0
 108:	00021080 	sll	v0,v0,0x2
 10c:	03c21021 	addu	v0,s8,v0
 110:	8c420028 	lw	v0,40(v0)
 114:	00000000 	sll	zero,zero,0x0
 118:	afc20020 	sw	v0,32(s8)
                for (j_med = i_med + 1; j_med <= 8; j_med ++) {
 11c:	8fc20014 	lw	v0,20(s8)
 120:	00000000 	sll	zero,zero,0x0
 124:	24420001 	addiu	v0,v0,1
 128:	afc20018 	sw	v0,24(s8)
 12c:	0800006c 	j	1b0 <main+0x1b0>
 130:	00000000 	sll	zero,zero,0x0
                    if (temparray[j_med] < min)
 134:	8fc20018 	lw	v0,24(s8)
 138:	00000000 	sll	zero,zero,0x0
 13c:	00021080 	sll	v0,v0,0x2
 140:	03c21021 	addu	v0,s8,v0
 144:	8c430028 	lw	v1,40(v0)
 148:	8fc20020 	lw	v0,32(s8)
 14c:	00000000 	sll	zero,zero,0x0
 150:	0062102a 	slt	v0,v1,v0
 154:	10400012 	beqz	v0,1a0 <main+0x1a0>
 158:	00000000 	sll	zero,zero,0x0
                    {
                        temp = min;
 15c:	8fc20020 	lw	v0,32(s8)
 160:	00000000 	sll	zero,zero,0x0
 164:	afc20024 	sw	v0,36(s8)
                        min = temparray[j_med];
 168:	8fc20018 	lw	v0,24(s8)
 16c:	00000000 	sll	zero,zero,0x0
 170:	00021080 	sll	v0,v0,0x2
 174:	03c21021 	addu	v0,s8,v0
 178:	8c420028 	lw	v0,40(v0)
 17c:	00000000 	sll	zero,zero,0x0
 180:	afc20020 	sw	v0,32(s8)
                        temparray[j_med] = temp;
 184:	8fc20018 	lw	v0,24(s8)
 188:	00000000 	sll	zero,zero,0x0
 18c:	00021080 	sll	v0,v0,0x2
 190:	03c21021 	addu	v0,s8,v0
 194:	8fc30024 	lw	v1,36(s8)
 198:	00000000 	sll	zero,zero,0x0
 19c:	ac430028 	sw	v1,40(v0)
            }

            /*find median -- kernel to process the array*/
            for (i_med = 0; i_med < 4; i_med++) {
                min = temparray[i_med];
                for (j_med = i_med + 1; j_med <= 8; j_med ++) {
 1a0:	8fc20018 	lw	v0,24(s8)
 1a4:	00000000 	sll	zero,zero,0x0
 1a8:	24420001 	addiu	v0,v0,1
 1ac:	afc20018 	sw	v0,24(s8)
 1b0:	8fc20018 	lw	v0,24(s8)
 1b4:	00000000 	sll	zero,zero,0x0
 1b8:	28420009 	slti	v0,v0,9
 1bc:	1440ffdd 	bnez	v0,134 <main+0x134>
 1c0:	00000000 	sll	zero,zero,0x0
                        temp = min;
                        min = temparray[j_med];
                        temparray[j_med] = temp;
                    }
                }
                temparray[i_med] = min;
 1c4:	8fc20014 	lw	v0,20(s8)
 1c8:	00000000 	sll	zero,zero,0x0
 1cc:	00021080 	sll	v0,v0,0x2
 1d0:	03c21021 	addu	v0,s8,v0
 1d4:	8fc30020 	lw	v1,32(s8)
 1d8:	00000000 	sll	zero,zero,0x0
 1dc:	ac430028 	sw	v1,40(v0)
                    n++;
                }
            }

            /*find median -- kernel to process the array*/
            for (i_med = 0; i_med < 4; i_med++) {
 1e0:	8fc20014 	lw	v0,20(s8)
 1e4:	00000000 	sll	zero,zero,0x0
 1e8:	24420001 	addiu	v0,v0,1
 1ec:	afc20014 	sw	v0,20(s8)
 1f0:	8fc20014 	lw	v0,20(s8)
 1f4:	00000000 	sll	zero,zero,0x0
 1f8:	28420004 	slti	v0,v0,4
 1fc:	1440ffc0 	bnez	v0,100 <main+0x100>
 200:	00000000 	sll	zero,zero,0x0
                        temparray[j_med] = temp;
                    }
                }
                temparray[i_med] = min;
            };
            min = temparray[4];
 204:	8fc20038 	lw	v0,56(s8)
 208:	00000000 	sll	zero,zero,0x0
 20c:	afc20020 	sw	v0,32(s8)
            for (j_med = 5; j_med <= 8; j_med ++) {
 210:	24020005 	addiu	v0,zero,5
 214:	afc20018 	sw	v0,24(s8)
 218:	0800009d 	j	274 <main+0x274>
 21c:	00000000 	sll	zero,zero,0x0
                if (temparray[j_med] < min) {
 220:	8fc20018 	lw	v0,24(s8)
 224:	00000000 	sll	zero,zero,0x0
 228:	00021080 	sll	v0,v0,0x2
 22c:	03c21021 	addu	v0,s8,v0
 230:	8c430028 	lw	v1,40(v0)
 234:	8fc20020 	lw	v0,32(s8)
 238:	00000000 	sll	zero,zero,0x0
 23c:	0062102a 	slt	v0,v1,v0
 240:	10400008 	beqz	v0,264 <main+0x264>
 244:	00000000 	sll	zero,zero,0x0
                    min = temparray[j_med];
 248:	8fc20018 	lw	v0,24(s8)
 24c:	00000000 	sll	zero,zero,0x0
 250:	00021080 	sll	v0,v0,0x2
 254:	03c21021 	addu	v0,s8,v0
 258:	8c420028 	lw	v0,40(v0)
 25c:	00000000 	sll	zero,zero,0x0
 260:	afc20020 	sw	v0,32(s8)
                    }
                }
                temparray[i_med] = min;
            };
            min = temparray[4];
            for (j_med = 5; j_med <= 8; j_med ++) {
 264:	8fc20018 	lw	v0,24(s8)
 268:	00000000 	sll	zero,zero,0x0
 26c:	24420001 	addiu	v0,v0,1
 270:	afc20018 	sw	v0,24(s8)
 274:	8fc20018 	lw	v0,24(s8)
 278:	00000000 	sll	zero,zero,0x0
 27c:	28420009 	slti	v0,v0,9
 280:	1440ffe7 	bnez	v0,220 <main+0x220>
 284:	00000000 	sll	zero,zero,0x0
                    min = temparray[j_med];
                }
            }
            
            /*kernel to return the median filter to the output image*/
            image_o[i+1][j+1] = min;
 288:	8fc20004 	lw	v0,4(s8)
 28c:	00000000 	sll	zero,zero,0x0
 290:	24430001 	addiu	v1,v0,1
 294:	8fc20008 	lw	v0,8(s8)
 298:	00000000 	sll	zero,zero,0x0
 29c:	24440001 	addiu	a0,v0,1
 2a0:	00601021 	addu	v0,v1,zero
 2a4:	00021100 	sll	v0,v0,0x4
 2a8:	00431023 	subu	v0,v0,v1
 2ac:	00441021 	addu	v0,v0,a0
 2b0:	00021080 	sll	v0,v0,0x2
 2b4:	03c21021 	addu	v0,s8,v0
 2b8:	8fc30020 	lw	v1,32(s8)
 2bc:	00000000 	sll	zero,zero,0x0
 2c0:	ac430034 	sw	v1,52(v0)
    int temparray[FILTERSIZE];
    int image_o[IMAGE_XSIZE][IMAGE_YSIZE];
    

    for (i = 0; i < IMAGE_XSIZE-FILTERSIZE; i++){       // traverse image from origin till end of image minus the filter width 
        for (j = 0; j < IMAGE_YSIZE-FILTERSIZE; j++) {
 2c4:	8fc20008 	lw	v0,8(s8)
 2c8:	00000000 	sll	zero,zero,0x0
 2cc:	24420001 	addiu	v0,v0,1
 2d0:	afc20008 	sw	v0,8(s8)
 2d4:	8fc20008 	lw	v0,8(s8)
 2d8:	00000000 	sll	zero,zero,0x0
 2dc:	2842000c 	slti	v0,v0,12
 2e0:	1440ff51 	bnez	v0,28 <main+0x28>
 2e4:	00000000 	sll	zero,zero,0x0
    int min, temp;
    int temparray[FILTERSIZE];
    int image_o[IMAGE_XSIZE][IMAGE_YSIZE];
    

    for (i = 0; i < IMAGE_XSIZE-FILTERSIZE; i++){       // traverse image from origin till end of image minus the filter width 
 2e8:	8fc20004 	lw	v0,4(s8)
 2ec:	00000000 	sll	zero,zero,0x0
 2f0:	24420001 	addiu	v0,v0,1
 2f4:	afc20004 	sw	v0,4(s8)
 2f8:	8fc20004 	lw	v0,4(s8)
 2fc:	00000000 	sll	zero,zero,0x0
 300:	2842000c 	slti	v0,v0,12
 304:	1440ff45 	bnez	v0,1c <main+0x1c>
 308:	00000000 	sll	zero,zero,0x0
            /*kernel to return the median filter to the output image*/
            image_o[i+1][j+1] = min;
        }
    }

    for ( x = 0; x < IMAGE_YSIZE; x++ ) {
 30c:	afc0000c 	sw	zero,12(s8)
 310:	080000ff 	j	3fc <main+0x3fc>
 314:	00000000 	sll	zero,zero,0x0
        for ( y = 0; y < IMAGE_XSIZE; y++) {
 318:	afc00010 	sw	zero,16(s8)
 31c:	080000f6 	j	3d8 <main+0x3d8>
 320:	00000000 	sll	zero,zero,0x0
            main_result += (output[x][y] != image_o[x][y]);
 324:	3c040000 	lui	a0,0x0
 328:	8fc3000c 	lw	v1,12(s8)
 32c:	00000000 	sll	zero,zero,0x0
 330:	00601021 	addu	v0,v1,zero
 334:	00021100 	sll	v0,v0,0x4
 338:	00431023 	subu	v0,v0,v1
 33c:	8fc30010 	lw	v1,16(s8)
 340:	00000000 	sll	zero,zero,0x0
 344:	00431021 	addu	v0,v0,v1
 348:	00021880 	sll	v1,v0,0x2
 34c:	24820000 	addiu	v0,a0,0
 350:	00621021 	addu	v0,v1,v0
 354:	8c440000 	lw	a0,0(v0)
 358:	8fc3000c 	lw	v1,12(s8)
 35c:	00000000 	sll	zero,zero,0x0
 360:	00601021 	addu	v0,v1,zero
 364:	00021100 	sll	v0,v0,0x4
 368:	00431023 	subu	v0,v0,v1
 36c:	8fc30010 	lw	v1,16(s8)
 370:	00000000 	sll	zero,zero,0x0
 374:	00431021 	addu	v0,v0,v1
 378:	00021080 	sll	v0,v0,0x2
 37c:	03c21021 	addu	v0,s8,v0
 380:	8c420034 	lw	v0,52(v0)
 384:	00000000 	sll	zero,zero,0x0
 388:	00821026 	xor	v0,a0,v0
 38c:	0002102b 	sltu	v0,zero,v0
 390:	8fc30000 	lw	v1,0(s8)
 394:	00000000 	sll	zero,zero,0x0
 398:	00621021 	addu	v0,v1,v0
 39c:	afc20000 	sw	v0,0(s8)
            if (output[x][y] != image_o[x][y]) {
 3a0:	8fc3000c 	lw	v1,12(s8)
 3a4:	00000000 	sll	zero,zero,0x0
 3a8:	00601021 	addu	v0,v1,zero
 3ac:	00021100 	sll	v0,v0,0x4
 3b0:	00431023 	subu	v0,v0,v1
 3b4:	8fc3000c 	lw	v1,12(s8)
 3b8:	00000000 	sll	zero,zero,0x0
 3bc:	00601021 	addu	v0,v1,zero
 3c0:	00021100 	sll	v0,v0,0x4
 3c4:	00431023 	subu	v0,v0,v1
            image_o[i+1][j+1] = min;
        }
    }

    for ( x = 0; x < IMAGE_YSIZE; x++ ) {
        for ( y = 0; y < IMAGE_XSIZE; y++) {
 3c8:	8fc20010 	lw	v0,16(s8)
 3cc:	00000000 	sll	zero,zero,0x0
 3d0:	24420001 	addiu	v0,v0,1
 3d4:	afc20010 	sw	v0,16(s8)
 3d8:	8fc20010 	lw	v0,16(s8)
 3dc:	00000000 	sll	zero,zero,0x0
 3e0:	2842000f 	slti	v0,v0,15
 3e4:	1440ffcf 	bnez	v0,324 <main+0x324>
 3e8:	00000000 	sll	zero,zero,0x0
            /*kernel to return the median filter to the output image*/
            image_o[i+1][j+1] = min;
        }
    }

    for ( x = 0; x < IMAGE_YSIZE; x++ ) {
 3ec:	8fc2000c 	lw	v0,12(s8)
 3f0:	00000000 	sll	zero,zero,0x0
 3f4:	24420001 	addiu	v0,v0,1
 3f8:	afc2000c 	sw	v0,12(s8)
 3fc:	8fc2000c 	lw	v0,12(s8)
 400:	00000000 	sll	zero,zero,0x0
 404:	2842000f 	slti	v0,v0,15
 408:	1440ffc3 	bnez	v0,318 <main+0x318>
 40c:	00000000 	sll	zero,zero,0x0
        }
    }

    //printf ("%d\n", main_result);

    return main_result;
 410:	8fc20000 	lw	v0,0(s8)
}
 414:	03c0e821 	addu	sp,s8,zero
 418:	8fbe03bc 	lw	s8,956(sp)
 41c:	27bd03c0 	addiu	sp,sp,960
 420:	03e00008 	jr	ra
 424:	00000000 	sll	zero,zero,0x0
