
median.o:     file format elf32-bigmips


Disassembly of section .text:

00000000 <main>:
   0:	27bdfc58 	addiu	sp,sp,-936
   4:	afb10394 	sw	s1,916(sp)
   8:	3c110000 	lui	s1,0x0
   c:	afb20398 	sw	s2,920(sp)
  10:	afb503a4 	sw	s5,932(sp)
  14:	afb403a0 	sw	s4,928(sp)
  18:	afb3039c 	sw	s3,924(sp)
  1c:	afb00390 	sw	s0,912(sp)
  20:	00001021 	addu	v0,zero,zero
  24:	26310000 	addiu	s1,s1,0
  28:	27b2000c 	addiu	s2,sp,12
  2c:	240d0004 	addiu	t5,zero,4
  30:	24500001 	addiu	s0,v0,1
  34:	24430002 	addiu	v1,v0,2
  38:	00102080 	sll	a0,s0,0x2
  3c:	00107980 	sll	t7,s0,0x6
  40:	01e47823 	subu	t7,t7,a0
  44:	00022880 	sll	a1,v0,0x2
  48:	00025980 	sll	t3,v0,0x6
  4c:	00032080 	sll	a0,v1,0x2
  50:	00035180 	sll	t2,v1,0x6
  54:	25ef0004 	addiu	t7,t7,4
  58:	01655823 	subu	t3,t3,a1
  5c:	01445023 	subu	t2,t2,a0
  60:	022f6021 	addu	t4,s1,t7
  64:	022b5821 	addu	t3,s1,t3
  68:	022a5021 	addu	t2,s1,t2
  6c:	024f7821 	addu	t7,s2,t7
  70:	240e000c 	addiu	t6,zero,12
  74:	8d640000 	lw	a0,0(t3)
  78:	8d630004 	lw	v1,4(t3)
  7c:	8d620008 	lw	v0,8(t3)
  80:	8d930000 	lw	s3,0(t4)
  84:	8d940004 	lw	s4,4(t4)
  88:	8d590000 	lw	t9,0(t2)
  8c:	8d580004 	lw	t8,4(t2)
  90:	8d550008 	lw	s5,8(t2)
  94:	afa40000 	sw	a0,0(sp)
  98:	afa30004 	sw	v1,4(sp)
  9c:	afa20008 	sw	v0,8(sp)
  a0:	03a04821 	addu	t1,sp,zero
  a4:	00004021 	addu	t0,zero,zero
  a8:	25080001 	addiu	t0,t0,1
  ac:	00081080 	sll	v0,t0,0x2
  b0:	8d240000 	lw	a0,0(t1)
  b4:	03a21021 	addu	v0,sp,v0
  b8:	01001821 	addu	v1,t0,zero
  bc:	8c450000 	lw	a1,0(v0)
  c0:	24630001 	addiu	v1,v1,1
  c4:	00a4382a 	slt	a3,a1,a0
  c8:	10e00003 	beqz	a3,d8 <main+0xd8>
  cc:	28660009 	slti	a2,v1,9
  d0:	ac440000 	sw	a0,0(v0)
  d4:	00a02021 	addu	a0,a1,zero
  d8:	14c0fff8 	bnez	a2,bc <main+0xbc>
  dc:	24420004 	addiu	v0,v0,4
  e0:	ad240000 	sw	a0,0(t1)
  e4:	150dfff0 	bne	t0,t5,a8 <main+0xa8>
  e8:	25290004 	addiu	t1,t1,4
  ec:	0335182a 	slt	v1,t9,s5
  f0:	10600002 	beqz	v1,fc <main+0xfc>
  f4:	02a01021 	addu	v0,s5,zero
  f8:	03201021 	addu	v0,t9,zero
  fc:	0282182a 	slt	v1,s4,v0
 100:	10600003 	beqz	v1,110 <main+0x110>
 104:	0262182a 	slt	v1,s3,v0
 108:	02801021 	addu	v0,s4,zero
 10c:	0262182a 	slt	v1,s3,v0
 110:	10600003 	beqz	v1,120 <main+0x120>
 114:	0302182a 	slt	v1,t8,v0
 118:	02601021 	addu	v0,s3,zero
 11c:	0302182a 	slt	v1,t8,v0
 120:	10600002 	beqz	v1,12c <main+0x12c>
 124:	00000000 	sll	zero,zero,0x0
 128:	03001021 	addu	v0,t8,zero
 12c:	25ceffff 	addiu	t6,t6,-1
 130:	ade20000 	sw	v0,0(t7)
 134:	256b0004 	addiu	t3,t3,4
 138:	258c0004 	addiu	t4,t4,4
 13c:	254a0004 	addiu	t2,t2,4
 140:	15c0ffcc 	bnez	t6,74 <main+0x74>
 144:	25ef0004 	addiu	t7,t7,4
 148:	2402000c 	addiu	v0,zero,12
 14c:	1602ffb8 	bne	s0,v0,30 <main+0x30>
 150:	02001021 	addu	v0,s0,zero
 154:	3c030000 	lui	v1,0x0
 158:	24630000 	addiu	v1,v1,0
 15c:	2404000f 	addiu	a0,zero,15
 160:	00001021 	addu	v0,zero,zero
 164:	8e480004 	lw	t0,4(s2)
 168:	8e460000 	lw	a2,0(s2)
 16c:	8c6d0004 	lw	t5,4(v1)
 170:	8c690000 	lw	t1,0(v1)
 174:	8e450008 	lw	a1,8(s2)
 178:	8c6c0008 	lw	t4,8(v1)
 17c:	8e47000c 	lw	a3,12(s2)
 180:	8c6a000c 	lw	t2,12(v1)
 184:	01a86826 	xor	t5,t5,t0
 188:	01264826 	xor	t1,t1,a2
 18c:	8c680010 	lw	t0,16(v1)
 190:	8e460010 	lw	a2,16(s2)
 194:	0009482b 	sltu	t1,zero,t1
 198:	01856026 	xor	t4,t4,a1
 19c:	000d682b 	sltu	t5,zero,t5
 1a0:	8e450014 	lw	a1,20(s2)
 1a4:	8c6b0014 	lw	t3,20(v1)
 1a8:	01a96821 	addu	t5,t5,t1
 1ac:	000c602b 	sltu	t4,zero,t4
 1b0:	01475026 	xor	t2,t2,a3
 1b4:	8c690018 	lw	t1,24(v1)
 1b8:	8e470018 	lw	a3,24(s2)
 1bc:	01ac6821 	addu	t5,t5,t4
 1c0:	000a502b 	sltu	t2,zero,t2
 1c4:	01064026 	xor	t0,t0,a2
 1c8:	8c6c001c 	lw	t4,28(v1)
 1cc:	8e46001c 	lw	a2,28(s2)
 1d0:	01aa6821 	addu	t5,t5,t2
 1d4:	0008402b 	sltu	t0,zero,t0
 1d8:	01655826 	xor	t3,t3,a1
 1dc:	8c6a0020 	lw	t2,32(v1)
 1e0:	8e450020 	lw	a1,32(s2)
 1e4:	01a86821 	addu	t5,t5,t0
 1e8:	000b582b 	sltu	t3,zero,t3
 1ec:	01274826 	xor	t1,t1,a3
 1f0:	8c680024 	lw	t0,36(v1)
 1f4:	8e470024 	lw	a3,36(s2)
 1f8:	01ab6821 	addu	t5,t5,t3
 1fc:	0009482b 	sltu	t1,zero,t1
 200:	01866026 	xor	t4,t4,a2
 204:	8c6b0028 	lw	t3,40(v1)
 208:	8e460028 	lw	a2,40(s2)
 20c:	01a96821 	addu	t5,t5,t1
 210:	000c602b 	sltu	t4,zero,t4
 214:	01455026 	xor	t2,t2,a1
 218:	8c69002c 	lw	t1,44(v1)
 21c:	8e45002c 	lw	a1,44(s2)
 220:	01ac6821 	addu	t5,t5,t4
 224:	000a502b 	sltu	t2,zero,t2
 228:	01074026 	xor	t0,t0,a3
 22c:	8c6c0030 	lw	t4,48(v1)
 230:	8e470030 	lw	a3,48(s2)
 234:	01aa6821 	addu	t5,t5,t2
 238:	0008402b 	sltu	t0,zero,t0
 23c:	01665826 	xor	t3,t3,a2
 240:	8c6a0034 	lw	t2,52(v1)
 244:	8e460034 	lw	a2,52(s2)
 248:	01a86821 	addu	t5,t5,t0
 24c:	01254826 	xor	t1,t1,a1
 250:	000b582b 	sltu	t3,zero,t3
 254:	8c680038 	lw	t0,56(v1)
 258:	8e450038 	lw	a1,56(s2)
 25c:	01ab5821 	addu	t3,t5,t3
 260:	0009482b 	sltu	t1,zero,t1
 264:	01873826 	xor	a3,t4,a3
 268:	01694821 	addu	t1,t3,t1
 26c:	0007382b 	sltu	a3,zero,a3
 270:	01463026 	xor	a2,t2,a2
 274:	01273821 	addu	a3,t1,a3
 278:	0006302b 	sltu	a2,zero,a2
 27c:	01052826 	xor	a1,t0,a1
 280:	00e63021 	addu	a2,a3,a2
 284:	0005282b 	sltu	a1,zero,a1
 288:	00c52821 	addu	a1,a2,a1
 28c:	2484ffff 	addiu	a0,a0,-1
 290:	00451021 	addu	v0,v0,a1
 294:	2463003c 	addiu	v1,v1,60
 298:	1480ffb2 	bnez	a0,164 <main+0x164>
 29c:	2652003c 	addiu	s2,s2,60
 2a0:	8fb503a4 	lw	s5,932(sp)
 2a4:	8fb403a0 	lw	s4,928(sp)
 2a8:	8fb3039c 	lw	s3,924(sp)
 2ac:	8fb20398 	lw	s2,920(sp)
 2b0:	8fb10394 	lw	s1,916(sp)
 2b4:	8fb00390 	lw	s0,912(sp)
 2b8:	03e00008 	jr	ra
 2bc:	27bd03a8 	addiu	sp,sp,936
